(dp0
I1
(dp1
S'undoIndicator'
p2
(lp3
I0
aI0
aI0
aI0
aI0
aI0
aI0
aI1
aI0
aI1
aI0
aI0
aI0
asS'logs'
p4
(lp5
(cdatetime
time
p6
(S'\x00\x08\x1a\x00\x00\x00'
p7
tp8
Rp9
S'GO1'
p10
((lp11
(I123
I131
tp12
a(I156
I177
tp13
a(lp14
F0.7342648838396599
aF0.873237684298726
aF0.812884150470221
aF0.1994914412391442
aF0.3738781723971829
aF0.5845749258628279
aF0.31102854066056196
aF0.823071038762395
aF0.5376769566698149
aF0.7318063503409465
aF0.720074198581948
aF0.7969732266986521
aF0.5671398797591987
aF0.7821137988560339
aF0.6707865771866035
aF0.9743526416446936
aF0.7372095885389144
aF0.1235950645973235
aF0.19414367255386156
aF0.15985807070970692
aF0.8484154695506892
aF0.30770997669604316
aF0.3354352237328182
atp15
tp16
a(g6
(S'\x00\x08\x1b\x00\x00\x00'
p17
tp18
Rp19
S'DF1'
p20
(lp21
F0.9307089261359817
aF0.9751903073860021
aF0.8906787149359773
aF0.07537310210903736
aF0.5963040975678153
aF0.969734118573736
aF0.9645770342083485
aF0.44506652457638907
aF0.42527552211652053
aF0.6793501349090724
aF0.8931675959973178
aF0.36976028817294626
aF0.2003725998001331
aF0.5763636440402652
aF0.6786052200161132
aF0.5848145205205098
aF0.2321266896039258
aF0.7673918908821672
aF0.33548261895047915
aF0.5806636778225308
aF0.6004161401290995
aF0.7396627670108089
aF0.319198596791172
atp22
a(g6
(S'\x00\x08\x1f\x00\x00\x00'
p23
tp24
Rp25
g10
((lp26
g12
ag13
a(lp27
F0.059654849503093965
aF0.7764372844385362
aF0.8656826507155193
aF0.758175825814513
aF0.615522234260669
aF0.8829634509692967
aF0.8580012532246978
aF0.38066539781956477
aF0.7156373204556086
aF0.8159759483245272
aF0.5719478779237065
aF0.3416781581817576
aF0.29984296095652596
aF0.8504574266489736
aF0.9177470304327469
aF0.048283837831139986
aF0.17790794208796923
aF0.6607569873466967
aF0.6290944840614132
aF0.9624292835711634
aF0.7238849838161768
aF0.8779299400510613
aF0.6110585465921535
atp28
tp29
a(g6
(S'\x00\x08 \x00\x00\x00'
p30
tp31
Rp32
g20
(lp33
F0.7086804191120495
aF0.020950901669157806
aF0.3546711663552574
aF0.6284475157457214
aF0.13283546639237098
aF0.6237522003609524
aF0.17448727043268597
aF0.24754260241764203
aF0.7815709364895671
aF0.9304182003637899
aF0.8118781404326492
aF0.6062854526816593
aF0.5504676358929127
aF0.001734214219470509
aF0.864715737453969
aF0.0730583805353876
aF0.9242301901808284
aF0.14871021832994025
aF0.31741066107779714
aF0.6083362304641746
aF0.057987213841729335
aF0.888567368994899
aF0.45173894361939215
atp34
a(g6
(S'\x00\x08$\x00\x00\x00'
p35
tp36
Rp37
g10
((lp38
g12
ag13
a(lp39
F0.24273356504578558
aF0.10869121165356654
aF0.6049083970569351
aF0.5459772913175722
aF0.18504378148084377
aF0.7174950675604959
aF0.3472229744532752
aF0.2165873011553735
aF0.03542882323950247
aF0.7465613909721391
aF0.2859813209584289
aF0.5013734460238002
aF0.11742725234436568
aF0.580791737940228
aF0.8919497837402692
aF0.546646447865029
aF0.12088596430461895
aF0.6589322823733138
aF0.764883067842584
aF0.9273933333724788
aF0.7666877196791215
aF0.38504124172994947
aF0.38960298280494055
atp40
tp41
a(g6
(S'\x00\x08%\x00\x00\x00'
p42
tp43
Rp44
g20
(lp45
F0.7143418402110945
aF0.07036102246603637
aF0.7474511476675466
aF0.3915251003846666
aF0.32801120200448675
aF0.7849364418100562
aF0.732517570195139
aF0.15878162839589083
aF0.5032089930605879
aF0.1257900829254931
aF0.15883316515053947
aF0.7186746872087485
aF0.6017151977427899
aF0.3419961515693848
aF0.9424472338858121
aF0.8847069652562153
aF0.17782270199810724
aF0.7849344502830761
aF0.907969849490379
aF0.7416902103454347
aF0.9689284854715906
aF0.4830733867448246
aF0.8851528220961951
atp46
a(g6
(S'\x00\x08)\x00\x00\x00'
p47
tp48
Rp49
g10
((lp50
g12
ag13
a(lp51
F0.3506150419129479
aF0.42684805331472275
aF0.16695675640211338
aF0.14470539141473227
aF0.46925599235223436
aF0.7603386852879598
aF0.48884800147688057
aF0.7972464422239175
aF0.9879936643151915
aF0.22938453420392702
aF0.5014493682212099
aF0.041687377953436466
aF0.008594611305396738
aF0.39323809273354604
aF0.0007051125088692878
aF0.6568770970818707
aF0.5502826608156756
aF0.866973891867887
aF0.3719094802729829
aF0.16318581181140956
aF0.803069739711676
aF0.8189917548239698
aF0.19519165570700903
atp52
tp53
a(g6
(S'\x00\x08*\x00\x00\x00'
p54
tp55
Rp56
g20
(lp57
F0.4246500430534881
aF0.12301308404759603
aF0.6621573834907679
aF0.7678205439960248
aF0.27302578973441316
aF0.1988982792532109
aF0.7325154427659976
aF0.8255268846012881
aF0.8815563467317727
aF0.3965831395049122
aF0.9616423551795799
aF0.17676144263650262
aF0.67396976668452
aF0.5519215175302113
aF0.6273327556404117
aF0.665822549924322
aF0.20978315806115222
aF0.8203202254391342
aF0.9767815585613762
aF0.6765642830241344
aF0.4719216308869527
aF0.29493362663888434
aF0.13866870241351237
atp58
a(g6
(S'\x00\x08.\x00\x00\x00'
p59
tp60
Rp61
g10
((lp62
g12
ag13
a(lp63
F0.896869894559164
aF0.5544984856836856
aF0.605262292053196
aF0.4993461814926853
aF0.7875433023467512
aF0.27933385937900435
aF0.03240354734084616
aF0.9952954241092377
aF0.4723697037735135
aF0.5052017253116287
aF0.9139828581084863
aF0.9944492038221189
aF0.12201122075901072
aF0.1801938450640539
aF0.8375713106694369
aF0.08880448010078668
aF0.967801773728
aF0.2903997694310063
aF0.2819063453891051
aF0.35637445285320213
aF0.9219680836945534
aF0.8782840318197317
aF0.17157504041778304
atp64
tp65
a(g6
(S'\x00\x08/\x00\x00\x00'
p66
tp67
Rp68
g20
(lp69
F0.3556163639484373
aF0.1880108480872661
aF0.767628145524488
aF0.079771946973767
aF0.5966325902727071
aF0.03951338305769547
aF0.7904124879930274
aF0.46484559960894056
aF0.3089007307878978
aF0.6538100253109428
aF0.15558648840844969
aF0.4684699323720901
aF0.577983441891662
aF0.5037231277823929
aF0.9358110279226795
aF0.3613690212938322
aF0.9823952368642135
aF0.7702760689860473
aF0.6750202671247213
aF0.23066033315547552
aF0.2762917437447886
aF0.6488982892786272
aF0.6677183456566793
atp70
a(g6
(S'\x00\x083\x00\x00\x00'
p71
tp72
Rp73
g10
((lp74
g12
ag13
a(lp75
F0.41482634439361876
aF0.005866386441575666
aF0.2963618093892799
aF0.28736711332763865
aF0.9126475978020457
aF0.5909360892860214
aF0.6531864634580182
aF0.11978739871469346
aF0.000253485967272149
aF0.7499221313290878
aF0.222205094816598
aF0.8956787489227237
aF0.19567087354511603
aF0.9353942161949069
aF0.8963860279739493
aF0.26347093434316526
aF0.33195671106146407
aF0.9603543879677643
aF0.8155635857628821
aF0.5751825778633497
aF0.9184654691524101
aF0.8770714357477114
aF0.6022185531120235
atp76
tp77
a(g6
(S'\x00\x084\x00\x00\x00'
p78
tp79
Rp80
g20
(lp81
F0.6468758810416045
aF0.5308375621123325
aF0.2471993962711594
aF0.6664940723402798
aF0.2679049330266995
aF0.7829132483322782
aF0.5161643478076609
aF0.5444150678627117
aF0.5533107992705075
aF0.6096635699007746
aF0.09493142403847987
aF0.18952368701512867
aF0.6395382849081762
aF0.7198632841262007
aF0.5175862816538069
aF0.4676980249357101
aF0.6510203577010895
aF0.3130444589212653
aF0.6218692211995204
aF0.7741183172828066
aF0.3222730888711157
aF0.6062268513823496
aF0.6371732200790101
atp82
a(g6
(S'\x00\x088\x00\x00\x00'
p83
tp84
Rp85
g10
((lp86
g12
ag13
a(lp87
F0.24244176994612832
aF0.553435879631823
aF0.8883025280980819
aF0.17249486501756806
aF0.918083627419444
aF0.6606427748218586
aF0.15586433615588768
aF0.1556501044716141
aF0.5009119603465089
aF0.323394502095642
aF0.4836509289942683
aF0.15938600258207614
aF0.024804768349285466
aF0.9616495513538562
aF0.9785676444752609
aF0.8356844463424989
aF0.7068366903787426
aF0.7968398176625774
aF0.7300314967611702
aF0.4370678158474226
aF0.1282971237992382
aF0.3350280391539868
aF0.5576200375121098
atp88
tp89
a(g6
(S'\x00\x089\x00\x00\x00'
p90
tp91
Rp92
g20
(lp93
F0.10001399426390101
aF0.5867620174745678
aF0.6227928993355591
aF0.99266923501004
aF0.3185049336737329
aF0.24116668151332465
aF0.2013224863863815
aF0.9058995990673535
aF0.19021754276721692
aF0.6476932916790092
aF0.9632112533404794
aF0.8385908427314037
aF0.36369267494573854
aF0.32221187825209574
aF0.8794351062867702
aF0.6029009513815289
aF0.648349545127383
aF0.5701860579789446
aF0.7358038012855305
aF0.4527373351747588
aF0.3891184317634565
aF0.4274319796791839
aF0.4835959289182028
atp94
a(g6
(S'\x00\t\x01\x00\x00\x00'
p95
tp96
Rp97
g10
((lp98
g12
ag13
a(lp99
F0.3146319683050427
aF0.4972810300753039
aF0.47032453088444004
aF0.4480480584580129
aF0.8783465987032232
aF0.2338561003192705
aF0.5415017099430275
aF0.7349036167360742
aF0.9785910898195331
aF0.5617463630027129
aF0.11539646543737181
aF0.24998236394180562
aF0.12274984683994161
aF0.08084467232730774
aF0.6263610489395846
aF0.5976122995678101
aF0.07619411751789151
aF0.810245104883031
aF0.08767367644618984
aF0.4455421976888154
aF0.7777890710274357
aF0.019518288997503963
aF0.2557085113093902
atp100
tp101
a(g6
(S'\x00\t\x02\x00\x00\x00'
p102
tp103
Rp104
g20
(lp105
F0.8417175966199734
aF0.276034756483145
aF0.7704906623953769
aF0.1415188153009438
aF0.8888875783866922
aF0.9961266368822695
aF0.9328119985972139
aF0.3077694669887657
aF0.2093707222682567
aF0.5255657330411518
aF0.8557999884073707
aF0.7621391809265186
aF0.9046107522282416
aF0.23846612274385104
aF0.8944036349559403
aF0.49330618912157365
aF0.13117275403501338
aF0.6772684416861863
aF0.1294484934479455
aF0.4628973516270992
aF0.7228517391722636
aF0.40507197036105125
aF0.2556481050635955
atp106
a(g6
(S'\x00\t\x06\x00\x00\x00'
p107
tp108
Rp109
g10
((lp110
g12
ag13
a(lp111
F0.47729912312727285
aF0.46976443182677496
aF0.6268804083911996
aF0.22420418299733902
aF0.4877671768241698
aF0.158269501375761
aF0.7848011123594624
aF0.736982167822517
aF0.7547815686754296
aF0.30039610518922155
aF0.9083396761022846
aF0.29072518855212626
aF0.3546857336816278
aF0.14011814098705533
aF0.7428622036360385
aF0.44048442403029164
aF0.14303790554999396
aF0.43789152771264694
aF0.03458819476952646
aF0.5555080666161035
aF0.6139168343477758
aF0.6286658834494789
aF0.16137953446953845
atp112
tp113
a(g6
(S'\x00\t\x07\x00\x00\x00'
p114
tp115
Rp116
g20
(lp117
F0.17547842905879718
aF0.23509935320455977
aF0.8656961000527059
aF0.6626628703567439
aF0.41625574985862224
aF0.1549718863358831
aF0.8213684908971951
aF0.3245557685988829
aF0.4369631080602515
aF0.09331116702989051
aF0.936923716123766
aF0.6051591703835195
aF0.8555798927749018
aF0.4516704812150405
aF0.8756562970325877
aF0.7793280840829967
aF0.2913794054661887
aF0.1223336524135269
aF0.35479496750415007
aF0.9722789306657252
aF0.21705732323333082
aF0.05162102668923485
aF0.842692760361956
atp118
a(g6
(S'\x00\t\x0b\x00\x00\x00'
p119
tp120
Rp121
g10
((lp122
g12
ag13
a(lp123
F0.3757391372512968
aF0.3403448549446655
aF0.8383174950867106
aF0.3310535492849713
aF0.5381094997277863
aF0.36564357431056727
aF0.4646592459276009
aF0.6113651678352344
aF0.5343017414424628
aF0.18015659282479146
aF0.06726036202296681
aF0.479916138075163
aF0.4738266388995901
aF0.8008711513637078
aF0.2918314413541844
aF0.2469648629771286
aF0.6841989661778746
aF0.4751949799987446
aF0.17894345227214958
aF0.5238306508299224
aF0.5695644521636608
aF0.9984579811800903
aF0.28715028569709244
atp124
tp125
a(g6
(S'\x00\t\x0c\x00\x00\x00'
p126
tp127
Rp128
g20
(lp129
F0.22030265498293067
aF0.4625814935515047
aF0.36105682781982484
aF0.8857241874603328
aF0.7405093660521216
aF0.9939253407786564
aF0.8021624975464072
aF0.10907140126981607
aF0.5233090029929334
aF0.03476178651448536
aF0.2692720850631023
aF0.6575091047860302
aF0.7016105533157898
aF0.2736255435670524
aF0.5519462244227795
aF0.04219013799406879
aF0.691614807147924
aF0.494462445618178
aF0.8361338072759579
aF0.6711518333414721
aF0.6086715282683819
aF0.9341595970501275
aF0.8392298432949686
atp130
a(g6
(S'\x00\t\x10\x00\x00\x00'
p131
tp132
Rp133
g10
((lp134
g12
ag13
a(lp135
F0.9928121432958159
aF0.7391216268756166
aF0.2173709004617168
aF0.7720466053031174
aF0.7388709837190307
aF0.041584448745697555
aF0.8515814793686263
aF0.19794220180401267
aF0.31723404167747427
aF0.936824890689217
aF0.9910031264078103
aF0.9774872230357174
aF0.8686237370095622
aF0.444538263041515
aF0.41778675225750694
aF0.5192809194512574
aF0.46520566507228234
aF0.4802148921742563
aF0.8956447661538289
aF0.26263941180106354
aF0.4267314228010649
aF0.5555375563742064
aF0.4109415098474727
atp136
tp137
a(g6
(S'\x00\t\x11\x00\x00\x00'
p138
tp139
Rp140
g20
(lp141
F0.7804408781450529
aF0.7139429488075504
aF0.06890678338608092
aF0.9988375155240937
aF0.9788037443919082
aF0.2141162597076689
aF0.14846246680426745
aF0.8081092023579436
aF0.9831588384251553
aF0.2331965282864189
aF0.6244293015971921
aF0.02298273956679142
aF0.189719571926379
aF0.20649910582067577
aF0.6722370027524688
aF0.3413960314201623
aF0.9199017181476924
aF0.05966461391817934
aF0.8142687224025064
aF0.10170202257743455
aF0.3510034424929219
aF0.6555029632442564
aF0.42170388517966395
atp142
a(g6
(S'\x00\t\x15\x00\x00\x00'
p143
tp144
Rp145
g10
((lp146
g12
ag13
a(lp147
F0.22823916770379138
aF0.5731512951863169
aF0.7972081018678254
aF0.114226563980655
aF0.5860972277404074
aF0.8088628168997309
aF0.8929230622171292
aF0.925803054152346
aF0.6312397292238408
aF0.4136485011578036
aF0.031353252322950276
aF0.5413118212438351
aF0.41097929999150473
aF0.9860156884648279
aF0.7829261254824527
aF0.5591574505193764
aF0.4240626472455452
aF0.7142126648708494
aF0.9663291511599402
aF0.9281515280181704
aF0.266463695208077
aF0.20076560458153103
aF0.4962940517201968
atp148
tp149
a(g6
(S'\x00\t\x16\x00\x00\x00'
p150
tp151
Rp152
g20
(lp153
F0.4281902625876013
aF0.6150764621068135
aF0.44398697709252843
aF0.012184184940137954
aF0.3239254955075579
aF0.022595250348241613
aF0.6265563649650053
aF0.33658586590544404
aF0.6913528602159401
aF0.45054237131100394
aF0.4933716942806672
aF0.7632849681945096
aF0.9864475362163819
aF0.0021967875144559557
aF0.7359297486959102
aF0.5163696587469093
aF0.05063445919350362
aF0.6886272305530338
aF0.5660887109325892
aF0.31960011751269557
aF0.5625061958704582
aF0.050098908218117466
aF0.37365040100333047
atp154
a(g6
(S'\x00\t\x1a\x00\x00\x00'
p155
tp156
Rp157
g10
((lp158
g12
ag13
a(lp159
F0.43070696953994014
aF0.3762710022009952
aF0.2619808228164603
aF0.4153298995747614
aF0.5681504122910876
aF0.44211351938506105
aF0.45669679137574015
aF0.9571241329165846
aF0.027601880124597522
aF0.016922141777363064
aF0.7743461330726022
aF0.4596507723075238
aF0.7486955878832562
aF0.3878682816798409
aF0.3467648146439558
aF0.3134646879464206
aF0.8652480949506574
aF0.9398011626614993
aF0.040111402601578194
aF0.14109177601017853
aF0.37423526897709347
aF0.6958975272228818
aF0.41816073651480334
atp160
tp161
a(g6
(S'\x00\t\x1b\x00\x00\x00'
p162
tp163
Rp164
g20
(lp165
F0.6295916655173184
aF0.6317351643811736
aF0.9517514378992885
aF0.6864377837305513
aF0.1450005346196649
aF0.367436744977799
aF0.39329623469397734
aF0.837993296421995
aF0.21522066334565104
aF0.49933384733102437
aF0.22918512583892636
aF0.9101961429803536
aF0.9489071660192453
aF0.9966359918118439
aF0.9036458621343506
aF0.8714036360239167
aF0.304122172930802
aF0.8116039174354244
aF0.6945990519846585
aF0.4296353184149958
aF0.6423736719974581
aF0.42318732170996276
aF0.8972238314133664
atp166
asS'layouts'
p167
(lp168
(cnumpy.core.multiarray
scalar
p169
(cnumpy
dtype
p170
(S'f8'
p171
I0
I1
tp172
Rp173
(I3
S'<'
p174
NNNI-1
I-1
I0
tp175
bS'\xc3\\|\x0e\xe2I\xa5\xbf'
p176
tp177
Rp178
g169
(g173
S'\x98S\xe05\xeb\x04\xbc\xbf'
p179
tp180
Rp181
tp182
a(g169
(g173
S' \x83\xad@\x9c\x07\xa0\xbf'
p183
tp184
Rp185
g169
(g173
S'x\x9cl^\xc3E\xbc\xbf'
p186
tp187
Rp188
tp189
a(g169
(g173
S'L\xf8\xa2\xde\x84%\x91\xbf'
p190
tp191
Rp192
g169
(g173
S'\xcd\xfdj\t\xc3F\xbc\xbf'
p193
tp194
Rp195
tp196
a(g169
(g173
S'\x19\xf3\x87\x91%\xdc`?'
p197
tp198
Rp199
g169
(g173
S'1\x1b\x02RGI\xb2\xbf'
p200
tp201
Rp202
tp203
a(g169
(g173
S'\xab\xe8\xb9\xff\xc5*\x9c?'
p204
tp205
Rp206
g169
(g173
S'-\x07\xf7,\xc0\x8a\xb0\xbf'
p207
tp208
Rp209
tp210
a(g169
(g173
S'\x91\xb1\xc3\xdf\x12\xfd\x9b?'
p211
tp212
Rp213
g169
(g173
S'\x8a\x90/2\xd9jr\xbf'
p214
tp215
Rp216
tp217
a(g169
(g173
S'!\xba\xf0\r\xbb\xdb\x9b?'
p218
tp219
Rp220
g169
(g173
S'\xe9I\x02\x13\xa0\xca\xa3?'
p221
tp222
Rp223
tp224
a(g169
(g173
S'\x91\xb1\xc3\xdf\x12\xfd\x9b?'
p225
tp226
Rp227
g169
(g173
S'\x8a\x90/2\xd9jr\xbf'
p228
tp229
Rp230
tp231
a(g169
(g173
S'\xcd\xf0\xad\x19i\xea\xaa?'
p232
tp233
Rp234
g169
(g173
S'Cu\x9e\xa8\x05\xba\x97\xbf'
p235
tp236
Rp237
tp238
a(g169
(g173
S'\x91\xb1\xc3\xdf\x12\xfd\x9b?'
p239
tp240
Rp241
g169
(g173
S'\x8a\x90/2\xd9jr\xbf'
p242
tp243
Rp244
tp245
a(g169
(g173
S'\xca\xe7\xd6\x89d\xdd\xa3?'
p246
tp247
Rp248
g169
(g173
S'L\x08\x159\x80\x02\x8e?'
p249
tp250
Rp251
tp252
a(g169
(g173
S'f-o9\x86\xcf\xb2?'
p253
tp254
Rp255
g169
(g173
S'u\xde\x03Beh\x8a\xbf'
p256
tp257
Rp258
tp259
a(g169
(g173
S'3\x10\xa1\x04\xb1\xbe\xb1?'
p260
tp261
Rp262
g169
(g173
S'\xd8G\x84\xcb\xdc\xc4\xb0?'
p263
tp264
Rp265
tp266
asS'KNNAcc'
p267
(lp268
g169
(g173
S'\xe2\xe9\xd7\xfb\xb3C\xed?'
p269
tp270
Rp271
ag169
(g173
S'\xed\x9f8\x07j\xa4\xed?'
p272
tp273
Rp274
ag169
(g173
S'v%\xc7\x83\n\xfd\xed?'
p275
tp276
Rp277
ag169
(g173
S'((((((\xee?'
p278
tp279
Rp280
ag169
(g173
S'(\x86\xc9BP5\xee?'
p281
tp282
Rp283
ag169
(g173
S'\xbd\xc1\xb8\xca\xa6\xee\xee?'
p284
tp285
Rp286
ag169
(g173
S'\x0b\xbfW&\x89\xc3\xee?'
p287
tp288
Rp289
ag169
(g173
S'\xe3A\x85\xfe\x0b\xf1\xee?'
p290
tp291
Rp292
ag169
(g173
S'\x0b\xbfW&\x89\xc3\xee?'
p293
tp294
Rp295
ag169
(g173
S'\x95D\xe6\xa2)\x1c\xef?'
p296
tp297
Rp298
ag169
(g173
S'\x0b\xbfW&\x89\xc3\xee?'
p299
tp300
Rp301
ag169
(g173
S'\x95D\xe6\xa2)\x1c\xef?'
p302
tp303
Rp304
ag169
(g173
S'\xbd\xc1\xb8\xca\xa6\xee\xee?'
p305
tp306
Rp307
ag169
(g173
S'\x95D\xe6\xa2)\x1c\xef?'
p308
tp309
Rp310
asS'observations'
p311
(dp312
S'gender'
p313
S'm'
p314
sS'comments'
p315
(lp316
S'Malic_acid'
p317
aS'Ash'
p318
aS'Alcalinity_of_ash'
p319
aS'Magnesium'
p320
asS'job'
p321
S'student'
p322
sS'insight_names'
p323
(lp324
(lp325
asS'starttime'
p326
g6
(S'\x00\x00\x00\x00\x00\x00'
p327
tp328
Rp329
sS'insights'
p330
(dp331
g330
(dp332
S'notes'
p333
S'xyz'
p334
sg317
I1
sS'time'
p335
g6
(S'\x00\t\x19\x00\x00\x00'
p336
tp337
Rp338
ssssS'topFeatures'
p339
(lp340
S'NA All Weights Equal'
p341
a(lp342
S'Proanthocyanins'
p343
ag318
ag320
aS'Hue'
p344
aS'Flavanoids'
p345
aa(lp346
S'Color_intensity'
p347
ag345
ag320
ag343
aS'Alcohol'
p348
aa(lp349
g345
ag320
ag318
ag348
ag319
aa(lp350
g347
ag348
aS'OD280/OD315_of_diluted_wines'
p351
ag345
ag319
aa(lp352
g347
ag348
ag345
ag351
ag344
aa(lp353
g347
ag351
ag348
ag344
aS'Proline'
p354
aa(lp355
g347
ag348
ag351
ag344
ag354
aa(lp356
g347
ag351
ag348
ag344
ag354
aa(lp357
g351
ag347
ag348
ag344
ag354
aa(lp358
g347
ag351
ag348
ag344
ag354
aa(lp359
g347
ag351
ag348
ag344
ag354
aa(lp360
g351
ag347
ag348
ag344
ag354
aa(lp361
g347
ag351
ag348
ag344
ag354
aasS'initLayoutPoint'
p362
(g169
(g173
S'AR\xccR"A\xb1\xbf'
p363
tp364
Rp365
g169
(g173
S'\xda\xa4A\x8dK\xbc\xba\xbf'
p366
tp367
Rp368
tp369
sS'terms'
p370
(lp371
g348
ag317
ag318
ag319
ag320
aS'Total_phenols'
p372
ag345
aS'Nonflavanoid_phenols'
p373
ag343
ag347
ag344
ag351
ag354
aS'noise1'
p374
aS'noise2'
p375
aS'noise3'
p376
aS'noise4'
p377
aS'noise5'
p378
aS'noise6'
p379
aS'noise7'
p380
aS'noise8'
p381
aS'noise9'
p382
aS'noise10'
p383
assI2
(dp384
g2
(lp385
I0
aI0
aI0
aI0
aI0
aI0
aI0
aI0
asg4
(lp386
(g6
(S'\x00\x08\x1a\x00\x00\x00'
p387
tp388
Rp389
g10
((lp390
g12
ag13
a(lp391
F0.21211314601927989
aF0.8429493658416262
aF0.8870762754224047
aF0.3374420469682605
aF0.18795068866549414
aF0.9867314731933255
aF0.5733269671736428
aF0.42564859864443416
aF0.537086662012111
aF0.44984167266769437
aF0.7177564692821057
aF0.5677372888995769
aF0.8793181735665077
aF0.08300455634925952
aF0.24784027742555903
aF0.2005575918020257
aF0.21197976781665173
aF0.24942424070987212
aF0.599405452912419
aF0.371474123224694
aF0.9819651574432277
aF0.5979472378032844
aF0.0682148156309863
atp392
tp393
a(g6
(S'\x00\x08\x1b\x00\x00\x00'
p394
tp395
Rp396
g20
(lp397
F0.10952513359904281
aF0.21208217167684973
aF0.16889389812628286
aF0.20399670527666103
aF0.8967758253729019
aF0.22147704154595305
aF0.23857448530019731
aF0.6606296211127877
aF0.25254760875424853
aF0.3690048571216238
aF0.57403763037196
aF0.1871823964454571
aF0.6152758814613146
aF0.2925464195962624
aF0.1299260124547541
aF0.24506517542201423
aF0.49897177106048973
aF0.35336821824734754
aF0.750627955152774
aF0.32070166448650184
aF0.7264333048358987
aF0.46779013344717646
aF0.5334798704242846
atp398
a(g6
(S'\x00\x08\x1f\x00\x00\x00'
p399
tp400
Rp401
g10
((lp402
g12
ag13
a(lp403
F0.29983741958539645
aF0.1769303660124868
aF0.7930049694365574
aF0.8355381152424309
aF0.5758278663772965
aF0.041628718091047734
aF0.8409694246170534
aF0.06523848060220705
aF0.07963234703001543
aF0.2708542079023276
aF0.4225972807125219
aF0.030686685847775785
aF0.091473334868299
aF0.006560059591768863
aF0.7257890903280858
aF0.8038531065301044
aF0.8060846476100081
aF0.8494143352351758
aF0.03688381088350645
aF0.629713931600719
aF0.39280443221767913
aF0.6448550145827578
aF0.029652075053159477
atp404
tp405
a(g6
(S'\x00\x08 \x00\x00\x00'
p406
tp407
Rp408
g20
(lp409
F0.5379253209786474
aF0.658290292327828
aF0.41621868041912613
aF0.9704015994723403
aF0.192222911303356
aF0.8306440998677207
aF0.6247135369515759
aF0.4886169220624955
aF0.4436042876785301
aF0.8900676353719367
aF0.8448562711283302
aF0.09254950763168279
aF0.5931417710150965
aF0.12301437000528692
aF0.6778060182687197
aF0.6043591304682291
aF0.4869005527590642
aF0.5659937517871835
aF0.518859834524386
aF0.0998678417969816
aF0.5103230529245277
aF0.9468182611646095
aF0.6691524891203045
atp410
a(g6
(S'\x00\x08$\x00\x00\x00'
p411
tp412
Rp413
g10
((lp414
g12
ag13
a(lp415
F0.04525232171221272
aF0.3138995555287697
aF0.6715961727346189
aF0.7549588101336667
aF0.1620160481190186
aF0.4794939871825248
aF0.4720871552610333
aF0.06604147126919901
aF0.419691163348331
aF0.6580478209620408
aF0.07621502946539449
aF0.5640589715920712
aF0.5949168742750113
aF0.10817228054995354
aF0.3815319435469927
aF0.9674449923960041
aF0.6870474206061048
aF0.9202785091573392
aF0.7999414759385672
aF0.02057873743779992
aF0.29026940380350486
aF0.7816614062806342
aF0.48615064725756385
atp416
tp417
a(g6
(S'\x00\x08%\x00\x00\x00'
p418
tp419
Rp420
g20
(lp421
F0.8359067493705158
aF0.5064457823868718
aF0.8062878446267522
aF0.5162270636204582
aF0.8925944429780184
aF0.9696796694915001
aF0.4474286737509069
aF0.26219444792668045
aF0.09188438684468392
aF0.17730385527869774
aF0.5110793670775581
aF0.896341354050047
aF0.3453827149781018
aF0.7383584058660471
aF0.5013405222793005
aF0.4301444952907427
aF0.23861889885238263
aF0.9705850151695297
aF0.7403902922763202
aF0.6771336974837063
aF0.757874586221653
aF0.6286850779878848
aF0.11968274954077229
atp422
a(g6
(S'\x00\x08)\x00\x00\x00'
p423
tp424
Rp425
g10
((lp426
g12
ag13
a(lp427
F0.5071075169824805
aF0.39168635323936307
aF0.0793680052110628
aF0.7692450302156311
aF0.24510027960350644
aF0.6650718243384367
aF0.9661771316644799
aF0.01961236175136183
aF0.9939250865947453
aF0.4840044606269899
aF0.7813400423525071
aF0.736913526792544
aF0.17034674016188367
aF0.13614361970724698
aF0.5077100787438433
aF0.789056698092512
aF0.3963011344058991
aF0.7932125275745733
aF0.2930475392227069
aF0.8557880616746653
aF0.9618045462579863
aF0.6948121749401709
aF0.2881530083609989
atp428
tp429
a(g6
(S'\x00\x08*\x00\x00\x00'
p430
tp431
Rp432
g20
(lp433
F0.3746269206990944
aF0.3770621204708824
aF0.997958230705807
aF0.5002948542105852
aF0.8239118320052722
aF0.6554195357907447
aF0.31644222059157057
aF0.4006351314580864
aF0.595374285614757
aF0.572139701905028
aF0.3383851841917659
aF0.6634508259153801
aF0.09187314658082368
aF0.8186746005929992
aF0.2390376316508287
aF0.2999064672322702
aF0.6310870962796881
aF0.15478885724028701
aF0.5560006761094622
aF0.6271856566474864
aF0.8855774571499127
aF0.8357930107252868
aF0.4615571368357245
atp434
a(g6
(S'\x00\x08.\x00\x00\x00'
p435
tp436
Rp437
g10
((lp438
g12
ag13
a(lp439
F0.4856998196984973
aF0.039707757879529404
aF0.37787851167976894
aF0.6048227754283192
aF0.5871084297197429
aF0.1911511766238
aF0.5387256179656927
aF0.36601584267713716
aF0.8732997887485339
aF0.6472487428037594
aF0.12715969226652213
aF0.8999639743470067
aF0.24810983945284282
aF0.7718542326972717
aF0.37889883154431747
aF0.10024713583058453
aF0.333198307657794
aF0.3961315179270227
aF0.7732225082552551
aF0.9042676280585238
aF0.6385088827681779
aF0.36359113629561957
aF0.5153037191888321
atp440
tp441
a(g6
(S'\x00\x08/\x00\x00\x00'
p442
tp443
Rp444
g20
(lp445
F0.8055501051507795
aF0.1671132265260924
aF0.9005903998445516
aF0.593397067755509
aF0.6604094170892163
aF0.5904231383590023
aF0.17904271222099655
aF0.4207337272273224
aF0.8071679352063656
aF0.45913472993904014
aF0.8925495180189296
aF0.531403526859566
aF0.10781851583009883
aF0.7207044679655141
aF0.13800138751450042
aF0.6053709339872283
aF0.4916847850054712
aF0.4382815772775267
aF0.7301364355884575
aF0.3618794835391188
aF0.751148542929385
aF0.6855647329197418
aF0.5551859966398291
atp446
a(g6
(S'\x00\x083\x00\x00\x00'
p447
tp448
Rp449
g10
((lp450
g12
ag13
a(lp451
F0.04320017534763121
aF0.6825351674154395
aF0.7339756025175009
aF0.2736533588122123
aF0.7615342040655023
aF0.10363553019114413
aF0.07143685131106758
aF0.9233312790504992
aF0.8149163485126483
aF0.43867294894037157
aF0.8629043873741776
aF0.5207046115370758
aF0.08193681240252282
aF0.5839036144084775
aF0.18861845812970668
aF0.34625800143540675
aF0.1937355316641175
aF0.565712025792611
aF0.9447834650731131
aF0.8353399099697585
aF0.17451221107980242
aF0.5051249012213141
aF0.4217565094501611
atp452
tp453
a(g6
(S'\x00\x084\x00\x00\x00'
p454
tp455
Rp456
g20
(lp457
F0.5696967470820811
aF0.9407579280752082
aF0.03300683925058423
aF0.2804689333718219
aF0.2116365539610402
aF0.717636756419971
aF0.2890805671818134
aF0.5635815398944259
aF0.7720490354848776
aF0.5987310893050719
aF0.9825829752335568
aF0.02237689694391576
aF0.5389322366701418
aF0.8379845803769503
aF0.14426667947576333
aF0.44456294046556966
aF0.3533574563642472
aF0.4633358008811306
aF0.7138267534935039
aF0.8655305387572697
aF0.6586421521637377
aF0.319547663231896
aF0.3672340311552704
atp458
a(g6
(S'\x00\x088\x00\x00\x00'
p459
tp460
Rp461
g10
((lp462
g12
ag13
a(lp463
F0.053557156877136136
aF0.7471934835293556
aF0.3924262166063247
aF0.6234642173430031
aF0.2532544679148866
aF0.04164540360386926
aF0.995506551849745
aF0.7716536235851164
aF0.02088919313718085
aF0.7995295598083823
aF0.40439861008814537
aF0.41393379509408246
aF0.7953318883422525
aF0.5363271392530278
aF0.41897974661691173
aF0.46881966948893083
aF0.47120450197007
aF0.18693046918060563
aF0.25285707297654314
aF0.7455704906485208
aF0.9994937368150482
aF0.8878010711235261
aF0.19376656035945883
atp464
tp465
a(g6
(S'\x00\x089\x00\x00\x00'
p466
tp467
Rp468
g20
(lp469
F0.4416772024385007
aF0.34971515486464444
aF0.09873416779025734
aF0.030414860768613994
aF0.05471565020978897
aF0.9714949755526007
aF0.10420484173112987
aF0.5164525514771666
aF0.5197969947384791
aF0.7575524364808794
aF0.4159309688836823
aF0.8104416963125644
aF0.5928282863091562
aF0.4950491338893883
aF0.72580644546919
aF0.11674805702105417
aF0.4604521441156667
aF0.7607091106072582
aF0.22998801671003477
aF0.9946215311856634
aF0.1970398619309932
aF0.5369227029441744
aF0.4171640164298398
atp470
a(g6
(S'\x00\t\x01\x00\x00\x00'
p471
tp472
Rp473
g10
((lp474
g12
ag13
a(lp475
F0.6671047216735243
aF0.7996942200140879
aF0.31739750626584184
aF0.5211776172313353
aF0.3026955713917413
aF0.5513834725943844
aF0.15640955100637066
aF0.9603116767313179
aF0.14429943354279506
aF0.9838632078067545
aF0.7787856604274958
aF0.07770890278379394
aF0.7895910648710802
aF0.525270152785087
aF0.3546110354957934
aF0.3980824532363961
aF0.31302232115139894
aF0.996993405608309
aF0.015562586733171346
aF0.9748549531445442
aF0.8241276826251818
aF0.15363307757279
aF0.9569440299539749
atp476
tp477
a(g6
(S'\x00\t\x02\x00\x00\x00'
p478
tp479
Rp480
g20
(lp481
F0.6113465315415295
aF0.04743859571011799
aF0.9207941105872015
aF0.45957884697569296
aF0.8434456842270339
aF0.2115100961791131
aF0.06484059138306708
aF0.9036791395453642
aF0.8498031135485151
aF0.1054480225494061
aF0.2503707975215118
aF0.7819263917610114
aF0.49612830088091553
aF0.8120153569527867
aF0.9806989777340444
aF0.10318169409340539
aF0.4176884287750011
aF0.1511828010566959
aF0.35268392119958814
aF0.48635561971756314
aF0.3130501800787273
aF0.15693352030738894
aF0.25087842827899676
atp482
asg167
(lp483
(g169
(g173
S'\x8ec:\x8c\x85\xf7\xa3\xbf'
p484
tp485
Rp486
g169
(g173
S'\xf0\xce\xff\x88v\x0c\xb7\xbf'
p487
tp488
Rp489
tp490
a(g169
(g173
S"&\xec\x1a\x91'\xd1\x97\xbf"
p491
tp492
Rp493
g169
(g173
S'\xde\x82W[\x96O\xa1\xbf'
p494
tp495
Rp496
tp497
a(g169
(g173
S'\x85\x10S;\x1f\xa8\x94\xbf'
p498
tp499
Rp500
g169
(g173
S'\xe74}\xbf\xad\xa9\x81?'
p501
tp502
Rp503
tp504
a(g169
(g173
S'x\x9eB\xb8\xff\x1c{\xbf'
p505
tp506
Rp507
g169
(g173
S'\xcas\xfd4]U\x9e?'
p508
tp509
Rp510
tp511
a(g169
(g173
S'b\x9b\x0f\xfe^P\xb6?'
p512
tp513
Rp514
g169
(g173
S'\xf0\xdc\xc9,\xd6\xc7~\xbf'
p515
tp516
Rp517
tp518
a(g169
(g173
S'\xe5c;X5v\xb2?'
p519
tp520
Rp521
g169
(g173
S'L5\xdc\xa4n\x94\x9c?'
p522
tp523
Rp524
tp525
a(g169
(g173
S'T$\x1c\xa6\xc3\x05\xb3?'
p526
tp527
Rp528
g169
(g173
S'z\xe8\xb7\x16\xeaJp\xbf'
p529
tp530
Rp531
tp532
a(g169
(g173
S'T$\x1c\xa6\xc3\x05\xb3?'
p533
tp534
Rp535
g169
(g173
S'z\xe8\xb7\x16\xeaJp\xbf'
p536
tp537
Rp538
tp539
asg267
(lp540
g169
(g173
S'\xe2\xe9\xd7\xfb\xb3C\xed?'
p541
tp542
Rp543
ag169
(g173
S'\x96J\xe3\xb1\x14O\xed?'
p544
tp545
Rp546
ag169
(g173
S'\xfa\xadF\x15x\xb2\xed?'
p547
tp548
Rp549
ag169
(g173
S'\xaa\xb6\x9b\xd1e=\xee?'
p550
tp551
Rp552
ag169
(g173
S'\xd23n\xf9\xe2\x0f\xee?'
p553
tp554
Rp555
ag169
(g173
S'[\xb9\xfcu\x83h\xee?'
p556
tp557
Rp558
ag169
(g173
S'(\x86\xc9BP5\xee?'
p559
tp560
Rp561
ag169
(g173
S'\xf8U\x99\x12 \x05\xee?'
p562
tp563
Rp564
ag169
(g173
S'\xf8U\x99\x12 \x05\xee?'
p565
tp566
Rp567
asg311
(dp568
g313
g314
sg315
g316
sg321
g322
sg323
(lp569
(lp570
asg326
g6
(S'\x00\x00\x00\x00\x00\x00'
p571
tp572
Rp573
sg330
g331
ssg339
(lp574
g341
a(lp575
g354
ag347
ag320
ag373
ag372
aa(lp576
g347
ag354
ag372
ag373
ag351
aa(lp577
g347
ag354
ag372
ag348
ag373
aa(lp578
g347
ag354
ag372
ag373
ag351
aa(lp579
g354
ag347
ag351
ag372
ag348
aa(lp580
g354
ag347
ag351
ag372
ag348
aa(lp581
g354
ag372
ag347
ag348
ag351
aa(lp582
g354
ag372
ag347
ag348
ag351
aasg362
(g169
(g173
S'AR\xccR"A\xb1\xbf'
p583
tp584
Rp585
g169
(g173
S'\xda\xa4A\x8dK\xbc\xba\xbf'
p586
tp587
Rp588
tp589
sg370
g371
ssI4
(dp590
g2
(lp591
I0
aI0
aI0
aI0
aI1
aI0
aI0
aI0
aI0
aI0
aI0
aI0
aI0
aI0
asg4
(lp592
(g6
(S'\x00\x08\x1a\x00\x00\x00'
p593
tp594
Rp595
g10
((lp596
g12
ag13
a(lp597
F0.1661828996521303
aF0.2769751513533776
aF0.6795282586842503
aF0.6392961465004816
aF0.7016376814042642
aF0.6203504698234691
aF0.957727736759148
aF0.5283358100655567
aF0.3730959833184645
aF0.36942601370697137
aF0.6314180948799769
aF0.05889579464081307
aF0.9594931998514947
aF0.11652073370449989
aF0.012768951953819108
aF0.8609067241417161
aF0.30166377907697284
aF0.6816455697455284
aF0.07555539619016782
aF0.29544935876438283
aF0.10313543488705834
aF0.5895900857451567
aF0.8909387060936063
atp598
tp599
a(g6
(S'\x00\x08\x1b\x00\x00\x00'
p600
tp601
Rp602
g20
(lp603
F0.2764747390164124
aF0.02906589726349873
aF0.7168763417064972
aF0.0016325478449638053
aF0.4489172443012528
aF0.3522767459460693
aF0.6056519320178188
aF0.4317172200035758
aF0.35376455369503923
aF0.10676502902556007
aF0.44541893041179303
aF0.6107019795831186
aF0.43143599924699017
aF0.4503800729618419
aF0.7300752754701684
aF0.32685838615025187
aF0.14218812765302757
aF0.9353197767375336
aF0.12604713694286807
aF0.5595070852960362
aF0.7265278879567831
aF0.9805353711519502
aF0.058827342259942905
atp604
a(g6
(S'\x00\x08\x1f\x00\x00\x00'
p605
tp606
Rp607
g10
((lp608
g12
ag13
a(lp609
F0.41680826285032635
aF0.9481945118270119
aF0.854200300461873
aF0.7029136630972846
aF0.16470380667328233
aF0.4738699779207842
aF0.2624450118981977
aF0.6688167069742211
aF0.4128385074890526
aF0.38437885841055064
aF0.8018963193524126
aF0.7966816859188576
aF0.11992779357042505
aF0.8299576135194441
aF0.692872133020427
aF0.11336708150456276
aF0.7636515699726566
aF0.5187331109813091
aF0.971787246949197
aF0.8332036558522948
aF0.2915506308187492
aF0.8779507758231851
aF0.0017286939115190858
atp610
tp611
a(g6
(S'\x00\x08 \x00\x00\x00'
p612
tp613
Rp614
g20
(lp615
F0.11806652291641406
aF0.3237661235534749
aF0.1039413620414188
aF0.3920293872470765
aF0.5767722611812867
aF0.0740400203906999
aF0.6422046688024259
aF0.550530865031102
aF0.14595648880337042
aF0.42234061904518494
aF0.3625035245697448
aF0.4382711644378132
aF0.8069155682316828
aF0.12143859690225578
aF0.83745590582441
aF0.3305075623002146
aF0.9632467275813305
aF0.39587196447628104
aF0.0011346095506675757
aF0.7946763338940482
aF0.1850526053340007
aF0.058778109032033066
aF0.891942649807272
atp616
a(g6
(S'\x00\x08$\x00\x00\x00'
p617
tp618
Rp619
g10
((lp620
g12
ag13
a(lp621
F0.7664042191682421
aF0.8637639394964197
aF0.9485935051894945
aF0.22726188899949684
aF0.09306419727004789
aF0.6198472434348309
aF0.5340099107724052
aF0.1922426388578189
aF0.3259375185982999
aF0.0011251875006944578
aF0.01151393403196821
aF0.4482097735485373
aF0.5855295171202181
aF0.3246801869630266
aF0.5310379359572018
aF0.3625006045099478
aF0.67200616805558
aF0.26144836414302886
aF0.18378823953484935
aF0.4859538162293784
aF0.983435091059201
aF0.2154170866742986
aF0.19335887976838229
atp622
tp623
a(g6
(S'\x00\x08%\x00\x00\x00'
p624
tp625
Rp626
g20
(lp627
F0.4653030350574997
aF0.04309998533748771
aF0.1738110556315604
aF0.45666685589571854
aF0.6411879710320474
aF0.04293542677923745
aF0.009391227121370749
aF0.5903020545929469
aF0.4975338764011463
aF0.09362161475769437
aF0.6090294891368728
aF0.6304332745367253
aF0.7206592047786771
aF0.8755785651465035
aF0.4904510139661924
aF0.45538972854444093
aF0.02473771151963322
aF0.5620253447639173
aF0.4165617234000353
aF0.4431747483897641
aF0.7494360222872648
aF0.6414921394461272
aF0.04116944774168807
atp628
a(g6
(S'\x00\x08)\x00\x00\x00'
p629
tp630
Rp631
g10
((lp632
g12
ag13
a(lp633
F0.6043111744676151
aF0.3914598734567052
aF0.24417940555731088
aF0.7877793484368716
aF0.031677487312450126
aF0.11725253813591618
aF0.21259387413897624
aF0.4809725260729003
aF0.10076256891557656
aF0.48006254344688404
aF0.7924855709664905
aF0.47253444251807386
aF0.7291440105115565
aF0.646728749701199
aF0.9212295295002968
aF0.9069693244085849
aF0.8327673166005614
aF0.6554968988198976
aF0.4714311119926117
aF0.9198682463710474
aF0.7524543317984577
aF0.24092126909520162
aF0.34861181332196745
atp634
tp635
a(g6
(S'\x00\x08*\x00\x00\x00'
p636
tp637
Rp638
g20
(lp639
F0.9227241568578877
aF0.5860319345904548
aF0.9339593543242836
aF0.7205390073932535
aF0.4570368642016054
aF0.7399108292153996
aF0.11082627407921941
aF0.02945609248661374
aF0.35842728498289234
aF0.933653831636446
aF0.6096198437705775
aF0.3516102570034747
aF0.8343585564872226
aF0.4013300859305332
aF0.8824429070255362
aF8.604804474554584e-05
aF0.020003108906332057
aF0.6912897803040451
aF0.13737229471528145
aF0.07264025793391993
aF0.03842762581452164
aF0.8796807511452973
aF0.4689238527301971
atp640
a(g6
(S'\x00\x08.\x00\x00\x00'
p641
tp642
Rp643
g10
((lp644
g12
ag13
a(lp645
F0.7422565462394668
aF0.507676901829325
aF0.6378059077403172
aF0.20095982035793125
aF0.5467441484897965
aF0.36120502417057865
aF0.677489091332077
aF0.4082597352093591
aF0.8866248770549013
aF0.29659471833517936
aF0.22680246096730095
aF0.1375060408857789
aF0.29957908693790913
aF0.9851608709664538
aF0.9134268501089395
aF0.710884237348894
aF0.04565768365831668
aF0.8227930127701897
aF0.31927687558338513
aF0.8373691943747664
aF0.4390100893201767
aF0.11877295450621994
aF0.378457596237081
atp646
tp647
a(g6
(S'\x00\x08/\x00\x00\x00'
p648
tp649
Rp650
g20
(lp651
F0.18276926168203056
aF0.9796656233361252
aF0.18128455492425133
aF0.99051794035716
aF0.8670097423583115
aF0.2636672902594185
aF0.7192497319657555
aF0.38672841858311846
aF0.41724185699152694
aF0.8769402648548227
aF0.04576182651957672
aF0.35446691805438546
aF0.022739188788947318
aF0.6939494658938026
aF0.21869618760646392
aF0.22682074365910754
aF0.2249447763630148
aF0.783658698170283
aF0.990465190119238
aF0.2506602011100306
aF0.4615338613259916
aF0.9065417656808867
aF0.9691567417065573
atp652
a(g6
(S'\x00\x083\x00\x00\x00'
p653
tp654
Rp655
g10
((lp656
g12
ag13
a(lp657
F0.5164556689727149
aF0.29277571955082193
aF0.6352137893410192
aF0.9770301863334849
aF0.47754172756128943
aF0.07082972282518918
aF0.20114499386775164
aF0.653848162953194
aF0.5406362284161963
aF0.4537957347923023
aF0.3914359007833029
aF0.5975923811203779
aF0.05542054419653042
aF0.250948270837554
aF0.628387762509262
aF0.5958354340471185
aF0.22885715437514598
aF0.4380770029138551
aF0.030238929814227267
aF0.03156796903336623
aF0.8011901107150341
aF0.622704935540241
aF0.8374971643592772
atp658
tp659
a(g6
(S'\x00\x084\x00\x00\x00'
p660
tp661
Rp662
g20
(lp663
F0.7264059128162724
aF0.7376196945413458
aF0.23446423218964818
aF0.6200092114321079
aF0.49145352227311445
aF0.11605110026054566
aF0.50915902205515
aF0.4956808148669033
aF0.7731910103271576
aF0.41208816708493523
aF0.47405443811501924
aF0.8098849180576472
aF0.09996321431832977
aF0.0950179328717885
aF0.7998551881224052
aF0.4176072798118098
aF0.30545242827492924
aF0.1935351856567421
aF0.20278690193293059
aF0.6255167016044096
aF0.06160584200248387
aF0.45867304067605963
aF0.6161239406515049
atp664
a(g6
(S'\x00\x088\x00\x00\x00'
p665
tp666
Rp667
g10
((lp668
g12
ag13
a(lp669
F0.7047181101667934
aF0.4301951319288918
aF0.3874838729044294
aF0.9524988985342578
aF0.3592802374388535
aF0.4792355241880566
aF0.4569870516435314
aF0.40762184935733947
aF0.4405530748806067
aF0.5778437976709915
aF0.43958007574675373
aF0.8952430181263206
aF0.43020471275074634
aF0.4673476385977886
aF0.7852945139749639
aF0.9541523676929997
aF0.5015190832578316
aF0.270685982409579
aF0.6411259931651121
aF0.9370555637415772
aF0.8244366281354123
aF0.5935036001978122
aF0.5937513685130976
atp670
tp671
a(g6
(S'\x00\x089\x00\x00\x00'
p672
tp673
Rp674
g20
(lp675
F0.9053131559621463
aF0.41607749697991236
aF0.34980546781512156
aF0.9651864860806816
aF0.5205101872513058
aF0.02121375369813361
aF0.8166536043680392
aF0.6255354589933575
aF0.8791648379733107
aF0.7026350923416427
aF0.9293451237446562
aF0.8718379011036794
aF0.487694024764472
aF0.1361453506554704
aF0.9871583815607461
aF0.3342591819731945
aF0.667408141138577
aF0.3627662489037502
aF0.794610959056423
aF0.8216518355424682
aF0.9596235661497302
aF0.2722396280308842
aF0.9716137944811668
atp676
a(g6
(S'\x00\t\x01\x00\x00\x00'
p677
tp678
Rp679
g10
((lp680
g12
ag13
a(lp681
F0.4093604513831257
aF0.9462636707447057
aF0.2050714463292428
aF0.25079282198112485
aF0.398604033357164
aF0.4354431031804815
aF0.08474092557517132
aF0.1841806551480224
aF0.18975790906272216
aF0.3166783346461952
aF0.47948726006956777
aF0.9792741283857925
aF0.8573707321335984
aF0.0719846012172134
aF0.6716559351235164
aF0.82687878693825
aF0.7227804967591737
aF0.22984928650871383
aF0.27412301274535167
aF0.7620487074717636
aF0.05970905547191485
aF0.20576710725945568
aF0.7310575000570487
atp682
tp683
a(g6
(S'\x00\t\x02\x00\x00\x00'
p684
tp685
Rp686
g20
(lp687
F0.23832610853770775
aF0.45050499828787216
aF0.4008229316241986
aF0.05038121527991035
aF0.12884720291272267
aF0.8008122829537443
aF0.19636287645806383
aF0.1794799382190272
aF0.5937208489510961
aF0.10789939928708081
aF0.7207810066091105
aF0.37140033881657364
aF0.7233872889200099
aF0.1969157132871736
aF0.9415285764534376
aF0.8465482480595637
aF0.8418309423544131
aF0.05630805045440512
aF0.17314326657994172
aF0.19521488174989077
aF0.11769228943169452
aF0.3571640705089487
aF0.45930514063973027
atp688
a(g6
(S'\x00\t\x06\x00\x00\x00'
p689
tp690
Rp691
g10
((lp692
g12
ag13
a(lp693
F0.017849844987313346
aF0.3389562161316473
aF0.4187979218808284
aF0.22931293198072422
aF0.513509414884361
aF0.42741062066431645
aF0.9591861042627797
aF0.36320026639078296
aF0.6218158357063791
aF0.7989725753990888
aF0.08861512982268749
aF0.8720744794232898
aF0.5803219730025481
aF0.5302551701684608
aF0.3084495297481601
aF0.19388771175389097
aF0.07482563905300854
aF0.3831635428469189
aF0.269373314995039
aF0.9295856289482742
aF0.058422647391318416
aF0.17824012946177414
aF0.09705600820580362
atp694
tp695
a(g6
(S'\x00\t\x07\x00\x00\x00'
p696
tp697
Rp698
g20
(lp699
F0.27698490619501703
aF0.690945760545885
aF0.26367322995790754
aF0.37195285267310296
aF0.7778295895400779
aF0.1694295628309409
aF0.18520535501372926
aF0.1845413930511145
aF0.19605105995593852
aF0.11780774605430278
aF0.6738884003241392
aF0.056209694364552476
aF0.169260778176342
aF0.916024351426808
aF0.4794554009251537
aF0.8589383337804303
aF0.17863350064316819
aF0.8635905857753466
aF0.573765925314486
aF0.6123822760892952
aF0.709663153961534
aF0.320449681888593
aF0.7290190634047389
atp700
a(g6
(S'\x00\t\x0b\x00\x00\x00'
p701
tp702
Rp703
g10
((lp704
g12
ag13
a(lp705
F0.8131565255063047
aF0.14795447320747612
aF0.9187486387827126
aF0.5625106574808731
aF0.9810220016478728
aF0.4187875620437581
aF0.34529719258796054
aF0.13757171865936724
aF0.37104804373074207
aF0.9448736708712198
aF0.32195566944911624
aF0.7438747107652429
aF0.10161594062340251
aF0.8247343325625472
aF0.5769190407412151
aF0.6512857714469211
aF0.4956547759762674
aF0.5755542590263054
aF0.09710627695598573
aF0.136339941715226
aF0.009939955978247372
aF0.015024737627680862
aF0.9757860928145601
atp706
tp707
a(g6
(S'\x00\t\x0c\x00\x00\x00'
p708
tp709
Rp710
g20
(lp711
F0.3453324272629197
aF0.03648767393931984
aF0.49676632279120636
aF0.9685610798316387
aF0.06900141491475076
aF0.7773036012813588
aF0.465067868073725
aF0.8246460838223714
aF0.4513898006288545
aF0.17371627360829356
aF0.0829218246567629
aF0.29064502309835893
aF0.9761037236700478
aF0.6154365981247383
aF0.677791600875968
aF0.022841753847988255
aF0.4191283603599266
aF0.7745951381365962
aF0.8204825545996776
aF0.8306739171571758
aF0.06715634072782373
aF0.9409328549937525
aF0.4371935837679669
atp712
a(g6
(S'\x00\t\x10\x00\x00\x00'
p713
tp714
Rp715
g10
((lp716
g12
ag13
a(lp717
F0.13136274499335032
aF0.9177975779660312
aF0.8129389579203877
aF0.9585194848852904
aF0.870847031209564
aF0.8119384080772964
aF0.16971960334533098
aF0.8372029852253229
aF0.6859196458835315
aF0.9175787680751508
aF0.5666009930270046
aF0.34406492128042165
aF0.9751345547945705
aF0.35008420476375857
aF0.41450707578247536
aF0.814348901103107
aF0.2904099005345576
aF0.006600290632138517
aF0.37213059328118947
aF0.6088019577026123
aF0.6136870226538231
aF0.7124301701127775
aF0.8142633237998798
atp718
tp719
a(g6
(S'\x00\t\x11\x00\x00\x00'
p720
tp721
Rp722
g20
(lp723
F0.2082221568717897
aF0.4623105442223573
aF0.6500998890791516
aF0.3613984818485091
aF0.5398882118352296
aF0.9852780868623552
aF0.821778328104934
aF0.6190280571641704
aF0.22454488150000929
aF0.3070651671753136
aF0.09807675591849796
aF0.6176243787743106
aF0.9085882861996835
aF0.8225966470469963
aF0.5832785957494033
aF0.6032864778684901
aF0.2965828092636199
aF0.9963648141024771
aF0.8916092840421277
aF0.20955288671412986
aF0.9829720645419417
aF0.32475775246794336
aF0.018675155475113447
atp724
a(g6
(S'\x00\t\x15\x00\x00\x00'
p725
tp726
Rp727
g10
((lp728
g12
ag13
a(lp729
F0.16578286195235914
aF0.7906844239628793
aF0.9921018069395374
aF0.4176214590339089
aF0.18999090490379122
aF0.7498578748174242
aF0.39540995888589836
aF0.7190178658943019
aF0.5807163015145822
aF0.6408393556621096
aF0.32185508528099915
aF0.8226319770656761
aF0.08705941124831329
aF0.17464664826918275
aF0.6526819915068871
aF0.4396988991310441
aF0.9632390180509974
aF0.7858915203388469
aF0.9360520015589797
aF0.66395870509818
aF0.994282194150512
aF0.6913138745035853
aF0.2890913714869773
atp730
tp731
a(g6
(S'\x00\t\x16\x00\x00\x00'
p732
tp733
Rp734
g20
(lp735
F0.46910768829982863
aF0.25136786548044476
aF0.12017164998672925
aF0.7089274707588069
aF0.9764978122286027
aF0.43518059652486407
aF0.3268960245695267
aF0.19484512054022118
aF0.7785437829587691
aF0.41881519132066847
aF0.37964971287411675
aF0.3361026012430135
aF0.3373396818276585
aF0.1640939059696398
aF0.5310965941945562
aF0.832959790669642
aF0.10006902582420019
aF0.1657347719741633
aF0.16222349541520353
aF0.083116298819922
aF0.22265627808844968
aF0.8136295193840395
aF0.303224568739203
atp736
a(g6
(S'\x00\t\x1a\x00\x00\x00'
p737
tp738
Rp739
g10
((lp740
g12
ag13
a(lp741
F0.9954244161204057
aF0.5452036398109459
aF0.2589011728342816
aF0.3312156731783661
aF0.6068047517895471
aF0.12580260668847487
aF0.2547289193568124
aF0.03899518326454132
aF0.6662264394554144
aF0.5571847132901881
aF0.4499181214070165
aF0.38313761928340195
aF0.07684316526632606
aF0.4801465271593994
aF0.649688366684896
aF0.5097307595834307
aF0.6036598026813434
aF0.5489808207708432
aF0.6054357162816851
aF0.8469583450242941
aF0.4232523128871092
aF0.14453572493570632
aF0.3198465408207647
atp742
tp743
a(g6
(S'\x00\t\x1b\x00\x00\x00'
p744
tp745
Rp746
g20
(lp747
F0.11682513192543187
aF0.4534594811477771
aF0.49903934068266786
aF0.1379480741420892
aF0.2500316040581386
aF0.1583919489677329
aF0.8771703076524843
aF0.4530839151859567
aF0.4435984641585936
aF0.05816709896702743
aF0.992241151905546
aF0.4739252175261697
aF0.5202621207355509
aF0.736953026900508
aF0.5331472505012246
aF0.6037221448973227
aF0.9260257283370387
aF0.6668344415962956
aF0.31345032748781154
aF0.9914556766018271
aF0.44188620670290235
aF0.20941235777876677
aF0.9066591435077771
atp748
a(g6
(S'\x00\t\x1f\x00\x00\x00'
p749
tp750
Rp751
g10
((lp752
g12
ag13
a(lp753
F0.14336716353478174
aF0.3534334323279218
aF0.09037330710292346
aF0.030004837230190096
aF0.5844397562310588
aF0.7192866196202482
aF0.6246905620979983
aF0.07238298212028715
aF0.41710618795927923
aF0.7360804480595567
aF0.2524473809491211
aF0.3664447665729471
aF0.902017817860516
aF0.39091945543561046
aF0.9725107923511179
aF0.9472439906601507
aF0.08546357655822878
aF0.2376299527689011
aF0.07785298468946833
aF0.6918858006246414
aF0.22885462073704765
aF0.23129706262737215
aF0.3663019125153466
atp754
tp755
a(g6
(S'\x00\t \x00\x00\x00'
p756
tp757
Rp758
g20
(lp759
F0.3837288496471838
aF0.7054352979660293
aF0.22840595047510492
aF0.48420676673698904
aF0.6965820974310879
aF0.13395785248010017
aF0.8582117440534859
aF0.3612241028089689
aF0.7175100732917056
aF0.9839063744469333
aF0.14346754632020375
aF0.9465240766446363
aF0.1666837237494837
aF0.2650947814380078
aF0.9784751304548988
aF0.32375732152158254
aF0.4686109988112058
aF0.3494979446719806
aF0.8112132737021687
aF0.5915199348079796
aF0.4097953669508939
aF0.8482235816960112
aF0.8890620559813615
atp760
asg167
(lp761
(g169
(g173
S'\xc3\x1e\xcf\xdb \xad\xbe\xbf'
p762
tp763
Rp764
g169
(g173
S'\xdf\xf0qf\xd7\x1a\x8f\xbf'
p765
tp766
Rp767
tp768
a(g169
(g173
S'\xbai,@S\xc1\xbe\xbf'
p769
tp770
Rp771
g169
(g173
S'\xd9\x94\xe90x\xc1r?'
p772
tp773
Rp774
tp775
a(g169
(g173
S'\xd1\x96R\xaf}\xe1\xb7\xbf'
p776
tp777
Rp778
g169
(g173
S'\xa4}\xb6p=\x9b\xa1?'
p779
tp780
Rp781
tp782
a(g169
(g173
S'K\xd5x~\xd7p\xbb\xbf'
p783
tp784
Rp785
g169
(g173
S'T\xf5\xc7\xba\xf1\xef\xb1?'
p786
tp787
Rp788
tp789
a(g169
(g173
S'\xd1\x96R\xaf}\xe1\xb7\xbf'
p790
tp791
Rp792
g169
(g173
S'\xa4}\xb6p=\x9b\xa1?'
p793
tp794
Rp795
tp796
a(g169
(g173
S'\xbdv\xe4Z*\r\xaf\xbf'
p797
tp798
Rp799
g169
(g173
S'\x1cxl\xb5\xfc\xc6\xac?'
p800
tp801
Rp802
tp803
a(g169
(g173
S'H\xa1\xf8\x87\x86\xc7s\xbf'
p804
tp805
Rp806
g169
(g173
S'\xe2\xcd\xdc{\x02,\xb4?'
p807
tp808
Rp809
tp810
a(g169
(g173
S'uh\x86\xfe9\xca\x85?'
p811
tp812
Rp813
g169
(g173
S'm\xe2W"\xc3?\xbb?'
p814
tp815
Rp816
tp817
a(g169
(g173
S'|\xa1\xe3F\x04v\xa7?'
p818
tp819
Rp820
g169
(g173
S'\xd0\xc2\xda\xbc"\xb1\xc4?'
p821
tp822
Rp823
tp824
a(g169
(g173
S'=3\xeaR.y\xba?'
p825
tp826
Rp827
g169
(g173
S'\x14B_\xfa\xf5#\xc0?'
p828
tp829
Rp830
tp831
a(g169
(g173
S's\xfa)\x1e&h\xba?'
p832
tp833
Rp834
g169
(g173
S'\x98\xc5\xa3\x15\x07\x84\xc1?'
p835
tp836
Rp837
tp838
a(g169
(g173
S'\xb8Q[8\xb1\xd4\xbc?'
p839
tp840
Rp841
g169
(g173
S'(FVb&\xe1\xc2?'
p842
tp843
Rp844
tp845
a(g169
(g173
S'%y\x97\x062\x8c\xbf?'
p846
tp847
Rp848
g169
(g173
S'&\x1fi\r|\xf9\xc6?'
p849
tp850
Rp851
tp852
a(g169
(g173
S'\x1dn\xc3\x9b\xfd\xed\xc1?'
p853
tp854
Rp855
g169
(g173
S'\xf8_\xb5\xc4-\x88\xc9?'
p856
tp857
Rp858
tp859
asg267
(lp860
g169
(g173
S'\xe2\xe9\xd7\xfb\xb3C\xed?'
p861
tp862
Rp863
ag169
(g173
S'\x93G\xe0\xae\x11L\xed?'
p864
tp865
Rp866
ag169
(g173
S'\x86\x94y\xafC\x1b\xed?'
p867
tp868
Rp869
ag169
(g173
S'n+\xb2\xa4\xbf\x89\xed?'
p870
tp871
Rp872
ag169
(g173
S'\xab\xb0\xa7\xb9\x95\xdd\xed?'
p873
tp874
Rp875
ag169
(g173
S'n+\xb2\xa4\xbf\x89\xed?'
p876
tp877
Rp878
ag169
(g173
S'\x95\xab~\xd8$\x8c\xed?'
p879
tp880
Rp881
ag169
(g173
S'\xab\xb3\xa1\xc5}\r\xee?'
p882
tp883
Rp884
ag169
(g173
S'[\xb9\xfcu\x83h\xee?'
p885
tp886
Rp887
ag169
(g173
S'\xbd\xc1\xb8\xca\xa6\xee\xee?'
p888
tp889
Rp890
ag169
(g173
S'\x95D\xe6\xa2)\x1c\xef?'
p891
tp892
Rp893
ag169
(g173
S'm\xc7\x13{\xacI\xef?'
p894
tp895
Rp896
ag169
(g173
S'\x95D\xe6\xa2)\x1c\xef?'
p897
tp898
Rp899
ag169
(g173
S'3<*N\x06\x96\xee?'
p900
tp901
Rp902
ag169
(g173
S'\x15o\xbb"T\xf1\xee?'
p903
tp904
Rp905
asg311
(dp906
g313
g314
sg315
g316
sg321
g322
sg323
(lp907
(lp908
asg326
g6
(S'\x00\x00\x00\x00\x00\x00'
p909
tp910
Rp911
sg330
g331
ssg339
(lp912
g341
a(lp913
g317
ag381
ag348
ag343
ag354
aa(lp914
g317
ag347
ag375
ag351
ag344
aa(lp915
g347
ag375
ag351
ag344
ag372
aa(lp916
g347
ag351
ag375
ag344
ag381
aa(lp917
g347
ag375
ag351
ag344
ag372
aa(lp918
g347
ag351
ag344
ag372
ag354
aa(lp919
g347
ag351
ag354
ag344
ag372
aa(lp920
g347
ag351
ag344
ag354
ag372
aa(lp921
g347
ag351
ag344
ag354
ag348
aa(lp922
g351
ag347
ag344
ag354
ag348
aa(lp923
g347
ag344
ag354
ag351
ag348
aa(lp924
g347
ag351
ag344
ag348
ag354
aa(lp925
g351
ag347
ag344
ag354
ag348
aa(lp926
g351
ag347
ag344
ag354
ag348
aasg362
(g169
(g173
S'AR\xccR"A\xb1\xbf'
p927
tp928
Rp929
g169
(g173
S'\xda\xa4A\x8dK\xbc\xba\xbf'
p930
tp931
Rp932
tp933
sg370
g371
ssI5
(dp934
g2
(lp935
I0
aI0
aI0
aI0
aI0
aI0
aI0
aI1
asg4
(lp936
(g6
(S'\x00\x08\x1a\x00\x00\x00'
p937
tp938
Rp939
g10
((lp940
g12
ag13
a(lp941
F0.17343811670452347
aF0.7206570853459884
aF0.058580279572624794
aF0.15959881705691925
aF0.7252486213413348
aF0.19114723504017828
aF0.048341881443236256
aF0.26879303565768686
aF0.4568878605603164
aF0.7392942495596008
aF0.4213947901652555
aF0.6252404766907178
aF0.40335113143765855
aF0.3031433213900677
aF0.8844642751394295
aF0.7112622953817552
aF0.4756557657831505
aF0.9062084443987142
aF0.1196964508251035
aF0.4302582240424866
aF0.0409424252135655
aF0.481967101726268
aF0.12624016181142161
atp942
tp943
a(g6
(S'\x00\x08\x1b\x00\x00\x00'
p944
tp945
Rp946
g20
(lp947
F0.16472722356813851
aF0.4088592248351727
aF0.29924732602611803
aF0.826724481834037
aF0.65079254298393
aF0.409914669194281
aF0.17444202248567642
aF0.9269464846636859
aF0.26559547611641876
aF0.46537666080279905
aF0.38111532776413115
aF0.9207535377640623
aF0.11331361411899332
aF0.3848374924432294
aF0.5995654040441123
aF0.11222313058469857
aF0.7412832684734195
aF0.7108942407483724
aF0.4013417752664771
aF0.3452419722240241
aF0.4612599116668894
aF0.07850958823304699
aF0.7913651882640055
atp948
a(g6
(S'\x00\x08\x1f\x00\x00\x00'
p949
tp950
Rp951
g10
((lp952
g12
ag13
a(lp953
F0.8940201097656469
aF0.05483489145185272
aF0.6800043169916666
aF0.6002909681609506
aF0.7493165057216792
aF0.6903894707877629
aF0.5641822416598544
aF0.9833195917853951
aF0.23487383595774503
aF0.5019499104082695
aF0.43810746562259206
aF0.828784736131699
aF0.22123993484787619
aF0.5638208786450734
aF0.8117059538707297
aF0.7718008238767937
aF0.011559451426145229
aF0.9663089601291708
aF0.024645778853414457
aF0.22769940106743713
aF0.13009347358159018
aF0.12220438481000007
aF0.7999941656487584
atp954
tp955
a(g6
(S'\x00\x08 \x00\x00\x00'
p956
tp957
Rp958
g20
(lp959
F0.18828140384959235
aF0.39686361516763735
aF0.7153220282954528
aF0.8106712954081648
aF0.765660057100997
aF0.07954736182420563
aF0.41547486129792754
aF0.8388412666301167
aF0.6599235031068842
aF0.3159030771445216
aF0.9499410236138216
aF0.48516113958460305
aF0.17030933664533954
aF0.5973804008812159
aF0.010796978754213926
aF0.34975135304602756
aF0.7279976113865206
aF0.7774854519811775
aF0.311658833361242
aF0.5885361203995206
aF0.7625174550221925
aF0.5515204470458929
aF0.4237496231183132
atp960
a(g6
(S'\x00\x08$\x00\x00\x00'
p961
tp962
Rp963
g10
((lp964
g12
ag13
a(lp965
F0.3769009888660686
aF0.5865893354347697
aF0.7526381082276602
aF0.34961580382621293
aF0.03892389968890275
aF0.8848792045485975
aF0.9029162855268813
aF0.09731560242008919
aF0.6851809228051562
aF0.46191540302819367
aF0.1493235752851363
aF0.10062106109695257
aF0.0067059351344006535
aF0.3643867980930219
aF0.3364548623091066
aF0.047191130902231704
aF0.8771042207192521
aF0.6320256954413621
aF0.4948429187555178
aF0.13479162418481483
aF0.9903245635547988
aF0.22748059280225041
aF0.7059515624097922
atp966
tp967
a(g6
(S'\x00\x08%\x00\x00\x00'
p968
tp969
Rp970
g20
(lp971
F0.47734301912412946
aF0.612488251323693
aF0.49045419643275523
aF0.7265025799316738
aF0.37020713747710354
aF0.09841652332821249
aF0.8670849708557955
aF0.1216435949462551
aF0.1444280720491612
aF0.6520433022531549
aF0.5329150970838269
aF0.2252336298125387
aF0.7919712171154324
aF0.9739965782308802
aF0.6049371578858934
aF0.3494611108618313
aF0.47590982098592227
aF0.588921614844191
aF0.6356375654070885
aF0.4230846484160735
aF0.19652464279189108
aF0.5269577434604314
aF0.04106623648385688
atp972
a(g6
(S'\x00\x08)\x00\x00\x00'
p973
tp974
Rp975
g10
((lp976
g12
ag13
a(lp977
F0.11474369822498065
aF0.42311022340940996
aF0.7055583884153497
aF0.0402786150796528
aF0.77098610777451
aF0.08355388598724078
aF0.22169548315754783
aF0.5547943614172157
aF0.08148194373513074
aF0.589164958882927
aF0.4838205305702512
aF0.8615053924942614
aF0.729001581322642
aF0.21147349780647695
aF0.44231239987185966
aF0.289909119367894
aF0.3974766284080743
aF0.8487373738122994
aF0.9912640559289989
aF0.46897162332842
aF0.5998316620090542
aF0.6102654371414303
aF0.7024497738907659
atp978
tp979
a(g6
(S'\x00\x08*\x00\x00\x00'
p980
tp981
Rp982
g20
(lp983
F0.19726627527118124
aF0.3959285339429869
aF0.9257474675712087
aF0.4503044897962951
aF0.5319676129108497
aF0.5498579118655258
aF0.33062048218107365
aF0.6390148531233415
aF0.5414970015046051
aF0.5890506832446382
aF0.9995526035576062
aF0.3669727838380157
aF0.4868152292415149
aF0.9714044459942386
aF0.06218128547864776
aF0.3113229048057382
aF0.5166723935897553
aF0.6297201945987786
aF0.24069014215811668
aF0.5070292024685046
aF0.4573771327507222
aF0.9654855750799471
aF0.22474329460648546
atp984
a(g6
(S'\x00\x08.\x00\x00\x00'
p985
tp986
Rp987
g10
((lp988
g12
ag13
a(lp989
F0.3296428969491797
aF0.5193426947086658
aF0.8465479144551504
aF0.3607814950688826
aF0.6124422770968955
aF0.6158482635022103
aF0.8991705268519695
aF0.0350561437829362
aF0.7854275584026582
aF0.8076133555976553
aF0.4556988691371251
aF0.859369125058154
aF0.8009160404359815
aF0.3233200858278673
aF0.3935831847498785
aF0.20595935619143457
aF0.20293697172276548
aF0.40434447826264397
aF0.36026264731516255
aF0.8478284343771972
aF0.07919552417371067
aF0.8664426857747205
aF0.3934380470128477
atp990
tp991
a(g6
(S'\x00\x08/\x00\x00\x00'
p992
tp993
Rp994
g20
(lp995
F0.8672037513569941
aF0.35387450641825036
aF0.55010964970726
aF0.6158185800878885
aF0.645299398163113
aF0.9235721484852454
aF0.15754850588060731
aF0.8696852003542436
aF0.5686536858103948
aF0.16260883665740766
aF0.002754732488907896
aF0.45334410976136363
aF0.7468076189551363
aF0.6979740587430145
aF0.26180570983322504
aF0.8658196406721839
aF0.8167164522149101
aF0.4117790461388614
aF0.4381336050552458
aF0.18020715429653145
aF0.6589496743512647
aF0.8698572152436557
aF0.9439584316498855
atp996
a(g6
(S'\x00\x083\x00\x00\x00'
p997
tp998
Rp999
g10
((lp1000
g12
ag13
a(lp1001
F0.19156255870791616
aF0.38701218086154077
aF0.28756461131282407
aF0.8529570844028211
aF0.8295595655700172
aF0.6844726577268371
aF0.5210410797742588
aF0.8242011761906691
aF0.15171365502210066
aF0.47586086397779537
aF0.02346869237997251
aF0.07767642806088149
aF0.9186886047088859
aF0.701233295493739
aF0.09478925218010203
aF0.2001329209984214
aF0.18279860734073505
aF0.03171199377173928
aF0.898451902096165
aF0.3431744868530682
aF0.524177213391715
aF0.6741601868644299
aF0.10323748245050268
atp1002
tp1003
a(g6
(S'\x00\x084\x00\x00\x00'
p1004
tp1005
Rp1006
g20
(lp1007
F0.9655666131862978
aF0.2722877429017798
aF0.24395588084841935
aF0.7509618686936665
aF0.02067978248869351
aF0.5490120161155418
aF0.3602465489999944
aF0.5426980671236888
aF0.0763555059071499
aF0.4709836769615716
aF0.3338894867859893
aF0.38200149456963606
aF0.9857935454330636
aF0.5980626945169387
aF0.14346291592239047
aF0.01406495956054743
aF0.9509035068745719
aF0.1854588825026966
aF0.24290369974898995
aF0.2803499148269054
aF0.549749972562604
aF0.6882860405534974
aF0.18447074632136162
atp1008
a(g6
(S'\x00\x088\x00\x00\x00'
p1009
tp1010
Rp1011
g10
((lp1012
g12
ag13
a(lp1013
F0.7853546138822373
aF0.23811964098634153
aF0.9470772335130488
aF0.8698467385695663
aF0.12760062938278616
aF0.5618946525182068
aF0.6816639200731648
aF0.20280533505537424
aF0.5638247250659034
aF0.7290001580816117
aF0.1889666126939752
aF0.8730962390636898
aF0.8585819955427705
aF0.7696392245966825
aF0.5958448323629055
aF0.6245045328919917
aF0.5330925656502008
aF0.3699756930463721
aF0.906033147118403
aF0.9972800323540488
aF0.4704540659998395
aF0.18750957148936587
aF0.8266302861288595
atp1014
tp1015
a(g6
(S'\x00\x089\x00\x00\x00'
p1016
tp1017
Rp1018
g20
(lp1019
F0.5278647714899591
aF0.15436503077332286
aF0.6763969157191698
aF0.8699361643553075
aF0.03303121984627122
aF0.9541827775484027
aF0.3973461839368121
aF0.36527160421010385
aF0.6883516463375358
aF0.28976329462130646
aF0.5317574825978235
aF0.5435150712470126
aF0.5184032990301054
aF0.6596159415339616
aF0.7345167758996528
aF0.2083311614079848
aF0.7694360455691583
aF0.49314239254844794
aF0.30200789087394164
aF0.4475357928643321
aF0.21451441593199216
aF0.6473604418264239
aF0.9519884528646628
atp1020
a(g6
(S'\x00\t\x01\x00\x00\x00'
p1021
tp1022
Rp1023
g10
((lp1024
g12
ag13
a(lp1025
F0.7778882084974909
aF0.0293226891289583
aF0.568564019412679
aF0.5655134982479366
aF0.607344162415576
aF0.8004221354104113
aF0.9609973507889673
aF0.9867618391068755
aF0.19859051104224168
aF0.0011485646901868707
aF0.1978327281413983
aF0.27253998026626103
aF0.8174524245373149
aF0.18411770736721267
aF0.3365486682956349
aF0.3412314090210612
aF0.5723861169269977
aF0.2685788376081045
aF0.09626057118814302
aF0.020062735780999597
aF0.015044279132604865
aF0.5215333029205803
aF0.9934065250343028
atp1026
tp1027
a(g6
(S'\x00\t\x02\x00\x00\x00'
p1028
tp1029
Rp1030
g20
(lp1031
F0.9176708506392184
aF0.9402597161513776
aF0.40922250895351087
aF0.21259440481859315
aF0.4059150968255333
aF0.2792752052440972
aF0.33162168035533235
aF0.7437695076239287
aF0.7230660815636888
aF0.9224153304642309
aF0.41880579532174544
aF0.044243418511132226
aF0.47203903155753246
aF0.5176364358279785
aF0.9441909178489669
aF0.5011244280220938
aF0.778557183609173
aF0.7383998589010098
aF0.23951327445442006
aF0.4372786509585843
aF0.29748375498777
aF0.13907603806053426
aF0.6959874816194135
atp1032
asg167
(lp1033
(g169
(g173
S'\xa0\x9d\xbb\x9a\xa1(\xc0\xbf'
p1034
tp1035
Rp1036
g169
(g173
S'I\xee\x1b\xc1\xa5\xe6\xb2\xbf'
p1037
tp1038
Rp1039
tp1040
a(g169
(g173
S'>\x00\xa8\xf5Dw\xa7?'
p1041
tp1042
Rp1043
g169
(g173
S'\x8d~Hc\xcf\x16\xbc\xbf'
p1044
tp1045
Rp1046
tp1047
a(g169
(g173
S'\x11\xde\x9e{~.\xa9\xbf'
p1048
tp1049
Rp1050
g169
(g173
S'\xa2+\x02\x1b\x83\xebf\xbf'
p1051
tp1052
Rp1053
tp1054
a(g169
(g173
S'\x12q*\xe7_\xde\xb7?'
p1055
tp1056
Rp1057
g169
(g173
S'5Q\xb3\x1f\x07>\xb1\xbf'
p1058
tp1059
Rp1060
tp1061
a(g169
(g173
S'\xaclV\xbbX\xae\xc1?'
p1062
tp1063
Rp1064
g169
(g173
S"K\x98\xb4q'\xb0\xa6\xbf"
p1065
tp1066
Rp1067
tp1068
a(g169
(g173
S'<J|\x97\xd5$\xc1?'
p1069
tp1070
Rp1071
g169
(g173
S',\xe4\xd4\xfd\x01\xc0\x95\xbf'
p1072
tp1073
Rp1074
tp1075
a(g169
(g173
S'rg\x84]Hb\xc5?'
p1076
tp1077
Rp1078
g169
(g173
S'\xfc\xde\x80\x82O\x83p\xbf'
p1079
tp1080
Rp1081
tp1082
a(g169
(g173
S'<J|\x97\xd5$\xc1?'
p1083
tp1084
Rp1085
g169
(g173
S',\xe4\xd4\xfd\x01\xc0\x95\xbf'
p1086
tp1087
Rp1088
tp1089
asg267
(lp1090
g169
(g173
S'\xe2\xe9\xd7\xfb\xb3C\xed?'
p1091
tp1092
Rp1093
ag169
(g173
S'b\x1a\xaa\x8a\xc9K\xed?'
p1094
tp1095
Rp1096
ag169
(g173
S'\x95M\xdd\xbd\xfc~\xed?'
p1097
tp1098
Rp1099
ag169
(g173
S'+\x89\xccES8\xee?'
p1100
tp1101
Rp1102
ag169
(g173
S'\x05\t\x00\x12\xee5\xee?'
p1103
tp1104
Rp1105
ag169
(g173
S'\x05\t\x00\x12\xee5\xee?'
p1106
tp1107
Rp1108
ag169
(g173
S'S\x03\xa5a\xe8\xda\xed?'
p1109
tp1110
Rp1111
ag169
(g173
S'-\x86\xd29k\x08\xee?'
p1112
tp1113
Rp1114
ag169
(g173
S'S\x03\xa5a\xe8\xda\xed?'
p1115
tp1116
Rp1117
asg311
(dp1118
g313
g314
sg315
g316
sg321
g322
sg323
(lp1119
(lp1120
asg326
g6
(S'\x00\x00\x00\x00\x00\x00'
p1121
tp1122
Rp1123
sg330
g331
ssg339
(lp1124
g341
a(lp1125
g380
ag354
ag381
ag348
ag376
aa(lp1126
g354
ag380
ag348
ag381
ag351
aa(lp1127
g354
ag348
ag380
ag351
ag347
aa(lp1128
g354
ag348
ag351
ag344
ag380
aa(lp1129
g354
ag348
ag351
ag347
ag344
aa(lp1130
g354
ag348
ag351
ag344
ag347
aa(lp1131
g354
ag348
ag351
ag347
ag344
aa(lp1132
g354
ag348
ag351
ag344
ag347
aasg362
(g169
(g173
S'AR\xccR"A\xb1\xbf'
p1133
tp1134
Rp1135
g169
(g173
S'\xda\xa4A\x8dK\xbc\xba\xbf'
p1136
tp1137
Rp1138
tp1139
sg370
g371
ssI6
(dp1140
g2
(lp1141
I0
aI0
aI1
aI0
aI0
aI0
aI0
aI0
aI0
asg4
(lp1142
(g6
(S'\x00\x08\x1a\x00\x00\x00'
p1143
tp1144
Rp1145
g10
((lp1146
g12
ag13
a(lp1147
F0.2638600116219564
aF0.9372880793762275
aF0.5581082511791698
aF0.14589116885116882
aF0.5269565986710543
aF0.09092344209744518
aF0.9882800181571226
aF0.04535433790879284
aF0.12949269153599474
aF0.5779076896950651
aF0.9884905860080431
aF0.5587235363343988
aF0.2213631871723304
aF0.7906438240329928
aF0.84814203292309
aF0.7247238232508179
aF0.15092580670947553
aF0.3833928406269095
aF0.6174344791107402
aF0.14375342936089908
aF0.6545883882401292
aF0.36805476891604383
aF0.8055444220615268
atp1148
tp1149
a(g6
(S'\x00\x08\x1b\x00\x00\x00'
p1150
tp1151
Rp1152
g20
(lp1153
F0.9045754199974666
aF0.7614391267113501
aF0.6678204379985199
aF0.9786148159779531
aF0.24072948629790103
aF0.5919118749009913
aF0.43186340900051656
aF0.04075483074144348
aF0.3572071052592837
aF0.9504001958983017
aF0.7384255571142191
aF0.5118230346743914
aF0.5322594026215076
aF0.11370383083977287
aF0.3916701535788396
aF0.11046204727080222
aF0.3501838195856257
aF0.4182707493245166
aF0.18234756956267129
aF0.9962139176577127
aF0.8997758885581248
aF0.23179994420045802
aF0.11950370872051674
atp1154
a(g6
(S'\x00\x08\x1f\x00\x00\x00'
p1155
tp1156
Rp1157
g10
((lp1158
g12
ag13
a(lp1159
F0.1998151365351185
aF0.19189497326629446
aF0.8682526114931339
aF0.51252654249798
aF0.25012733267316134
aF0.8452319291992096
aF0.4394270243407069
aF0.2960436884284816
aF0.9559559810386158
aF0.9646891406989806
aF0.5994439158518472
aF0.1080534701706336
aF0.07524729822742704
aF0.6892768019289716
aF0.8862202127249342
aF0.7089293909687532
aF0.08240713755056894
aF0.22373606408064206
aF0.9421870215039833
aF0.4136783481134084
aF0.22702501891543347
aF0.2517253706436676
aF0.8302658412738112
atp1160
tp1161
a(g6
(S'\x00\x08 \x00\x00\x00'
p1162
tp1163
Rp1164
g20
(lp1165
F0.21501196773954434
aF0.07406199462081053
aF0.02093448432040701
aF0.7572612214006187
aF0.6860903059214296
aF0.3626953724710842
aF0.5768648929322154
aF0.3241447784171193
aF0.6454251256078677
aF0.8214049715978173
aF0.18280615593492144
aF0.9717100131970442
aF0.7318607698184376
aF0.03849643707649408
aF0.4261022409314432
aF0.05401625691132139
aF0.5802022867444117
aF0.7091680886248213
aF0.27704041551659375
aF0.39297802802444337
aF0.7397697255685558
aF0.7670367438598412
aF0.8294837848764718
atp1166
a(g6
(S'\x00\x08$\x00\x00\x00'
p1167
tp1168
Rp1169
g10
((lp1170
g12
ag13
a(lp1171
F0.30574366191252134
aF0.2769964743637652
aF0.7448970183230302
aF0.6858582785879813
aF0.08117256823092245
aF0.6449560451489448
aF0.2842688220016121
aF0.7407138899185983
aF0.18985687469817214
aF0.4533708780062883
aF0.6591564513865794
aF0.4462598027272089
aF0.14010406917519513
aF0.8967952971883588
aF0.614677220419888
aF0.2040469450607535
aF0.6877573486476048
aF0.9221686247850951
aF0.28979273254122084
aF0.7736839419740423
aF0.34643560167574394
aF0.23766986762710263
aF0.07643166412524982
atp1172
tp1173
a(g6
(S'\x00\x08%\x00\x00\x00'
p1174
tp1175
Rp1176
g20
(lp1177
F0.14170012972862656
aF0.7574192291246837
aF0.1648386475352528
aF0.5729969990194889
aF0.37819288966120534
aF0.4228513687765365
aF0.21422126865621005
aF0.8601099225986565
aF0.5691508947830423
aF0.1355543978149597
aF0.7720151728457828
aF0.5044423833577568
aF0.19153822336249315
aF0.4800425266747578
aF0.7440347088599549
aF0.5874467508012347
aF0.5182707381819368
aF0.07050074709578535
aF0.1859186011298678
aF0.8093541202978177
aF0.31531156643972913
aF0.748404033030439
aF0.41819811737865276
atp1178
a(g6
(S'\x00\x08)\x00\x00\x00'
p1179
tp1180
Rp1181
g10
((lp1182
g12
ag13
a(lp1183
F0.0832334744284311
aF0.7307959431047452
aF0.2109420961876266
aF0.526064432976831
aF0.6077586508550692
aF0.07719345155260693
aF0.09025902701979482
aF0.4006730400786511
aF0.08327331214403078
aF0.19527599387211436
aF0.09033898118149386
aF0.6781400067990526
aF0.7181565124242931
aF0.24134647405976417
aF0.26785633081887905
aF0.19394310551177507
aF0.6656590443097212
aF0.4550725997685212
aF0.22882210674501724
aF0.7494875042414659
aF0.524553815748307
aF0.7010278791765236
aF0.7202641215757113
atp1184
tp1185
a(g6
(S'\x00\x08*\x00\x00\x00'
p1186
tp1187
Rp1188
g20
(lp1189
F0.9645676615383542
aF0.3431908615846866
aF0.5083027347205539
aF0.804946599976026
aF0.3609472743966019
aF0.7757893399477302
aF0.5719103304108758
aF0.4721006516526417
aF0.29040463437463826
aF0.49742569091858135
aF0.042058364951217064
aF0.010309138383159278
aF0.34807887411829264
aF0.6188102137504801
aF0.6459476017215363
aF0.7144224135540064
aF0.48283033284796395
aF0.43854564826749143
aF0.5268834127711616
aF0.2694225122330074
aF0.3901233306565218
aF0.9026999225104526
aF0.5059874196755973
atp1190
a(g6
(S'\x00\x08.\x00\x00\x00'
p1191
tp1192
Rp1193
g10
((lp1194
g12
ag13
a(lp1195
F0.8148346221318581
aF0.9943219447670089
aF0.1864599482887992
aF0.09774594655205249
aF0.6714855999574095
aF0.7813214291845925
aF0.0022162319469738456
aF0.25114837135210666
aF0.40928973111083
aF0.20402338713585888
aF0.44742049253005634
aF0.8381224114102712
aF0.6489567201048696
aF0.2860266859947278
aF0.6271531077347308
aF0.6347979384273159
aF0.6601077317616645
aF0.8938906364842917
aF0.7695940555913754
aF0.9178710190662197
aF0.28215831569511707
aF0.07861440315829393
aF0.30521085264464465
atp1196
tp1197
a(g6
(S'\x00\x08/\x00\x00\x00'
p1198
tp1199
Rp1200
g20
(lp1201
F0.5955575638046682
aF0.029235703345520614
aF0.12052835045521426
aF0.9474059793418893
aF0.38327570589601756
aF0.07061603237073488
aF0.4991637767162981
aF0.07886263467513055
aF0.8600865519861846
aF0.7077107616093095
aF0.9654398108018839
aF0.1679736370555539
aF0.8822486955822132
aF0.4500991633653112
aF0.3941048867452117
aF0.8436291141346774
aF0.7257976132035048
aF0.8489523122694221
aF0.5256345478377357
aF0.48209015319742554
aF0.038618597264691634
aF0.28814717955316316
aF0.4038015839917033
atp1202
a(g6
(S'\x00\x083\x00\x00\x00'
p1203
tp1204
Rp1205
g10
((lp1206
g12
ag13
a(lp1207
F0.30821250392435595
aF0.38019736717969466
aF0.9673235171118368
aF0.04818263547935797
aF0.11512854191574018
aF0.19368889907048736
aF0.4377507173422658
aF0.36634123867379675
aF0.7680849323600912
aF0.9368024455389743
aF0.24721726312066783
aF0.5101223649820318
aF0.5167309996545115
aF0.30947099118583055
aF0.7412447104121808
aF0.07912503476099209
aF0.3979703821305668
aF0.5462790373106674
aF0.488808668544652
aF0.4695037982902096
aF0.3167476636058947
aF0.2614584958502961
aF0.3231830358585466
atp1208
tp1209
a(g6
(S'\x00\x084\x00\x00\x00'
p1210
tp1211
Rp1212
g20
(lp1213
F0.1957911777923026
aF0.44848155946522794
aF0.20993322030002082
aF0.4147220184748601
aF0.6420659493881351
aF0.6528843161471272
aF0.8890933257906666
aF0.14416380979145138
aF0.596813609289979
aF0.4502701927777656
aF0.3251202350954999
aF0.6893719411117516
aF0.35540733364276056
aF0.05641989152496718
aF0.6504245697503216
aF0.936833625396219
aF0.04310700799073508
aF0.34807838384102274
aF0.44182565324144785
aF0.7262730062001233
aF0.595893773792025
aF0.42436655198168394
aF0.816467288816371
atp1214
a(g6
(S'\x00\x088\x00\x00\x00'
p1215
tp1216
Rp1217
g10
((lp1218
g12
ag13
a(lp1219
F0.8311185837796855
aF0.14540633014007465
aF0.6112520679992345
aF0.17715768789430408
aF0.2832876502017758
aF0.5788594743730662
aF0.7902777349684543
aF0.3600231352825073
aF0.827181779281747
aF0.5336051560633429
aF0.04449233904032701
aF0.9801520198557887
aF0.15995756828452856
aF0.7994985427062135
aF0.12614788198943028
aF0.4549298140318315
aF0.8632158956835039
aF0.9612646606066494
aF0.15273661473590172
aF0.3331083333469902
aF0.4446926020027072
aF0.952657658253506
aF0.39582958427081605
atp1220
tp1221
a(g6
(S'\x00\x089\x00\x00\x00'
p1222
tp1223
Rp1224
g20
(lp1225
F0.3759308923311353
aF0.029280294701448994
aF0.004533241980555269
aF0.28754925772732565
aF0.3166258451571311
aF0.7804229990176607
aF0.33643599610208774
aF0.3848292155776897
aF0.7552403531529643
aF0.03934295581908687
aF0.4883774754653517
aF0.35130672301953936
aF0.4262532277796871
aF0.9537796336997599
aF0.7503002171442436
aF0.01645475998391932
aF0.02220596751578119
aF0.23939391324748582
aF0.802188597165019
aF0.14374794816576986
aF0.5962766879657255
aF0.8026911812996401
aF0.21169267204593312
atp1226
a(g6
(S'\x00\t\x01\x00\x00\x00'
p1227
tp1228
Rp1229
g10
((lp1230
g12
ag13
a(lp1231
F0.8376551841426799
aF0.9298668650299872
aF0.5807122977583054
aF0.4768742940445927
aF0.7165923931269099
aF0.4486873244917925
aF0.2242365073177981
aF0.8113855934657382
aF0.9830580853948884
aF0.5025329895796866
aF0.9943142427675323
aF0.325946341497516
aF0.27188147417263764
aF0.20488731203777877
aF0.7433028294479557
aF0.5842931961562664
aF0.08115503242627964
aF0.07818850612265693
aF0.7066910257077507
aF0.7947240852810792
aF0.8538883895593756
aF0.8644969578233803
aF0.8150798221070695
atp1232
tp1233
a(g6
(S'\x00\t\x02\x00\x00\x00'
p1234
tp1235
Rp1236
g20
(lp1237
F0.34890559953969835
aF0.647800951403936
aF0.616080814225529
aF0.9254876299099559
aF0.05295596918492229
aF0.8128845995797563
aF0.5606603862818026
aF0.24061146445192882
aF0.2644550187372384
aF0.1652776081702898
aF0.44623872319461033
aF0.09681637577667301
aF0.5409055810020248
aF0.14965007761282778
aF0.031862848346622785
aF0.7835354689165288
aF0.3621437925968036
aF0.1342263293733854
aF0.7440000340096941
aF0.8975619955097807
aF0.5034232924789283
aF0.593091491617347
aF0.7542052236556133
atp1238
a(g6
(S'\x00\t\x06\x00\x00\x00'
p1239
tp1240
Rp1241
g10
((lp1242
g12
ag13
a(lp1243
F0.07786976767341736
aF0.34119515186647975
aF0.9133053718599199
aF0.10217284097310053
aF0.0466560669519851
aF0.5336932260933777
aF0.35434377661067096
aF0.5524019847049618
aF0.09672401953443444
aF0.6532060922810025
aF0.42467579333769667
aF0.058767690440072684
aF0.09295692696358537
aF0.500386217161218
aF0.41226225625415913
aF0.5801094805865624
aF0.9635038742096587
aF0.35574167906261667
aF0.9209491619463828
aF0.22783434415772474
aF0.43829396838122137
aF0.46181317352371054
aF0.7461766668123367
atp1244
tp1245
a(g6
(S'\x00\t\x07\x00\x00\x00'
p1246
tp1247
Rp1248
g20
(lp1249
F0.13585975863958788
aF0.004282224425102399
aF0.2758735763809128
aF0.2469515541937416
aF0.7616766655118039
aF0.6567092507832153
aF0.5630648854065635
aF0.615203358590198
aF0.38434163942785915
aF0.11259195542610256
aF0.722075542526777
aF0.39139837569121194
aF0.22438379968176336
aF0.02575770896962437
aF0.9138206309912184
aF0.3333350417049511
aF0.06419301726648374
aF0.4000571327280381
aF0.1576861595388307
aF0.10706040300226327
aF0.25939630659216995
aF0.4720994863464796
aF0.7873992182801676
atp1250
asg167
(lp1251
(g169
(g173
S'8\x8d\xe8~\x00\xbc\xae\xbf'
p1252
tp1253
Rp1254
g169
(g173
S'f\x15\xed,<i\xb1\xbf'
p1255
tp1256
Rp1257
tp1258
a(g169
(g173
S'\xb2\x07\x1fV\xa6x\x9a\xbf'
p1259
tp1260
Rp1261
g169
(g173
S'n\x84\x8b]\x9d\n\xa6\xbf'
p1262
tp1263
Rp1264
tp1265
a(g169
(g173
S'8\x8d\xe8~\x00\xbc\xae\xbf'
p1266
tp1267
Rp1268
g169
(g173
S'f\x15\xed,<i\xb1\xbf'
p1269
tp1270
Rp1271
tp1272
a(g169
(g173
S'\x1f\xe6\x95\x1c\xccx\x82\xbf'
p1273
tp1274
Rp1275
g169
(g173
S'd\xc6\xcb\xcc\xcc\xe1\xa8\xbf'
p1276
tp1277
Rp1278
tp1279
a(g169
(g173
S'w\xa9\xfa\xe3~!\x95?'
p1280
tp1281
Rp1282
g169
(g173
S'<\xc1\x92\xf4\xbe\x0f\xa0\xbf'
p1283
tp1284
Rp1285
tp1286
a(g169
(g173
S'\xcf\rO\xdd\xc8m\xad?'
p1287
tp1288
Rp1289
g169
(g173
S"\xe3\xdd\x9e\xe5\xe4\x81'?"
p1290
tp1291
Rp1292
tp1293
a(g169
(g173
S'\x99)\x96@\x8d\xf1\xb7?'
p1294
tp1295
Rp1296
g169
(g173
S'\xa2\xd5\xe1\xf6^\xb2\x8e?'
p1297
tp1298
Rp1299
tp1300
a(g169
(g173
S'\x05T{\xe2m\xe9\xba?'
p1301
tp1302
Rp1303
g169
(g173
S'X\x93EL\x02\x06\xaa?'
p1304
tp1305
Rp1306
tp1307
a(g169
(g173
S'\x98\xd0rPZ\x1f\xc1?'
p1308
tp1309
Rp1310
g169
(g173
S'\xdb\x87\x92\x99\x89\x8c\xb6?'
p1311
tp1312
Rp1313
tp1314
asg267
(lp1315
g169
(g173
S'\xe2\xe9\xd7\xfb\xb3C\xed?'
p1316
tp1317
Rp1318
ag169
(g173
S'FS8n\x02\xda\xed?'
p1319
tp1320
Rp1321
ag169
(g173
S'[\xb6\x02j\x9b8\xee?'
p1322
tp1323
Rp1324
ag169
(g173
S'FS8n\x02\xda\xed?'
p1325
tp1326
Rp1327
ag169
(g173
S'\xbd\xc1\xb8\xca\xa6\xee\xee?'
p1328
tp1329
Rp1330
ag169
(g173
S'e\x14\xb6r\xf9\xeb\xee?'
p1331
tp1332
Rp1333
ag169
(g173
S'c\x0e\xb9c\x0e\xb9\xee?'
p1334
tp1335
Rp1336
ag169
(g173
S'3<*N\x06\x96\xee?'
p1337
tp1338
Rp1339
ag169
(g173
S'\xf0\xee\xee\xee\xee\xee\xee?'
p1340
tp1341
Rp1342
ag169
(g173
S'\xed\xf1\xe8\xfa\xd6\x1e\xef?'
p1343
tp1344
Rp1345
asg311
(dp1346
g313
g314
sg315
g316
sg321
g322
sg323
(lp1347
(lp1348
asg326
g6
(S'\x00\x00\x00\x00\x00\x00'
p1349
tp1350
Rp1351
sg330
g331
ssg339
(lp1352
g341
a(lp1353
g347
ag348
ag344
ag345
ag351
aa(lp1354
g347
ag348
ag344
ag354
ag351
aa(lp1355
g347
ag348
ag344
ag345
ag351
aa(lp1356
g347
ag348
ag354
ag344
ag351
aa(lp1357
g347
ag348
ag354
ag345
ag344
aa(lp1358
g347
ag348
ag345
ag354
ag351
aa(lp1359
g347
ag348
ag345
ag354
ag351
aa(lp1360
g347
ag348
ag354
ag345
ag344
aa(lp1361
g347
ag348
ag354
ag344
ag345
aasg362
(g169
(g173
S'AR\xccR"A\xb1\xbf'
p1362
tp1363
Rp1364
g169
(g173
S'\xda\xa4A\x8dK\xbc\xba\xbf'
p1365
tp1366
Rp1367
tp1368
sg370
g371
ssI7
(dp1369
g2
(lp1370
I0
aI0
aI0
aI0
asg4
(lp1371
(g6
(S'\x00\x08\x1a\x00\x00\x00'
p1372
tp1373
Rp1374
g10
((lp1375
g12
ag13
a(lp1376
F0.36461209650977966
aF0.587801443635085
aF0.591860162976944
aF0.5447903371315856
aF0.3146485766985013
aF0.7941165941401367
aF0.9502475587113359
aF0.6259704260584069
aF0.766114239301798
aF0.43449190340958666
aF0.47269667160268836
aF0.2952504705068436
aF0.33610440332769387
aF0.9358293042622571
aF0.7947680801872686
aF0.42402281755684845
aF0.6662200037715791
aF0.1840271514350057
aF0.24977196149492165
aF0.9167944187701115
aF0.2998086573713381
aF0.5112588900112366
aF0.5612325990308937
atp1377
tp1378
a(g6
(S'\x00\x08\x1b\x00\x00\x00'
p1379
tp1380
Rp1381
g20
(lp1382
F0.1310945047159654
aF0.26582482248573236
aF0.7352303182396452
aF0.49417272703751103
aF0.3087856685600284
aF0.2168022677362096
aF0.2834572114673216
aF0.5761077058413654
aF0.306424311171987
aF0.37416625648289403
aF0.608956891668873
aF0.7113893497082246
aF0.27841992026862117
aF0.3775711160063958
aF0.5059363449036308
aF0.08177803459389588
aF0.3955492875133244
aF0.5649643222822448
aF0.4767139799083352
aF0.7317398796952661
aF0.8240849466146823
aF0.04635056629438705
aF0.9111599794510525
atp1383
a(g6
(S'\x00\x08\x1f\x00\x00\x00'
p1384
tp1385
Rp1386
g10
((lp1387
g12
ag13
a(lp1388
F0.8623618457051966
aF0.517952366864281
aF0.06841058996366567
aF0.8037737072792689
aF0.31046132139472493
aF0.30882770553941075
aF0.7105049058653748
aF0.36559660557559537
aF0.19547057673700718
aF0.38658156178390823
aF0.5039485304725817
aF0.9670749026031666
aF0.5652096860389643
aF0.1144075637285007
aF0.45188540982880365
aF0.8090128151663655
aF0.9010621131382291
aF0.04711288944232295
aF0.4264792151113006
aF0.6280639231293139
aF0.6745093381276663
aF0.20068437160696428
aF0.2729548063537638
atp1389
tp1390
a(g6
(S'\x00\x08 \x00\x00\x00'
p1391
tp1392
Rp1393
g20
(lp1394
F0.7700193493624476
aF0.9711632781757095
aF0.18302042405794672
aF0.008124350910813538
aF0.34098399340918684
aF0.3062282862304678
aF0.2416269658560306
aF0.18906154396958053
aF0.2763883949172967
aF0.6464861971890634
aF0.7760125826076211
aF0.9136908343659963
aF0.791803012136591
aF0.6097327318681312
aF0.3551342032820295
aF0.6492864788947107
aF0.6063168124136202
aF0.30749420047198883
aF0.6799398562775153
aF0.5131719155329878
aF0.5925343700804009
aF0.11943193106271577
aF0.9435299132304323
atp1395
a(g6
(S'\x00\x08$\x00\x00\x00'
p1396
tp1397
Rp1398
g10
((lp1399
g12
ag13
a(lp1400
F0.7534304653742323
aF0.958256797249463
aF0.8243749120583477
aF0.5947089224458263
aF0.3778009837730463
aF0.6749611469239045
aF0.07177056992262643
aF0.2630757438018513
aF0.11147079120408443
aF0.32111495610546636
aF0.14053872794183409
aF0.9775532843861817
aF0.08495754284735424
aF0.32899754585574514
aF0.7412653361157306
aF0.4848475925357274
aF0.5295364404830951
aF0.9539820278148862
aF0.05436286100792198
aF0.18664824906306843
aF0.1239559517105494
aF0.5635713061101089
aF0.8541146429103127
atp1401
tp1402
a(g6
(S'\x00\x08%\x00\x00\x00'
p1403
tp1404
Rp1405
g20
(lp1406
F0.7112821696031619
aF0.8952031657718184
aF0.600228417653304
aF0.6503274092409128
aF0.9767141714308969
aF0.2909223100840548
aF0.4001960313997017
aF0.09441161933175435
aF0.14520520698409722
aF0.5470764783320938
aF0.9664088942192607
aF0.3697966946921274
aF0.22825476744557816
aF0.7788621085414666
aF0.5999290576259688
aF0.3766877728014376
aF0.31768998459508024
aF0.5504878755008032
aF0.6838132650981659
aF0.4278030268221472
aF0.05262101973563604
aF0.2867548388494504
aF0.044491151601057766
atp1407
a(g6
(S'\x00\x08)\x00\x00\x00'
p1408
tp1409
Rp1410
g10
((lp1411
g12
ag13
a(lp1412
F0.9911725366379158
aF0.48592834246901917
aF0.20669609085311547
aF0.9690658093752424
aF0.06980463976098983
aF0.7608838382534815
aF0.5952138110029723
aF0.07498947339144335
aF0.29114475698050835
aF0.9955340506380863
aF0.11287280468220873
aF0.006951870389647841
aF0.21727645553771524
aF0.4501058402792769
aF0.18033929474710342
aF0.4717619523662627
aF0.32685933329656813
aF0.4242702276742847
aF0.8291011598813641
aF0.587205641584589
aF0.7947122430473632
aF0.996057672625227
aF0.9661346427164762
atp1413
tp1414
a(g6
(S'\x00\x08*\x00\x00\x00'
p1415
tp1416
Rp1417
g20
(lp1418
F0.16053695442121163
aF0.5368612965611376
aF0.44035828727378634
aF0.8341013200726286
aF0.8112296334946736
aF0.0004507201165243613
aF0.17818783963003193
aF0.46733204982990306
aF0.8086118205237307
aF0.707484739748007
aF0.5277737180960713
aF0.142433800182456
aF0.7181522133595777
aF0.523538886629494
aF0.6813018701437223
aF0.8303290855408304
aF0.9448753142188939
aF0.420660656183946
aF0.3321240087631029
aF0.6349682445020711
aF0.966222062043777
aF0.7850588425403267
aF0.8798109110585771
atp1419
asg167
(lp1420
(g169
(g173
S'\x16\x8d\xe7F\xb2t\xa9\xbf'
p1421
tp1422
Rp1423
g169
(g173
S'\x1de\x8d\xcd\xda\xbf\xb9\xbf'
p1424
tp1425
Rp1426
tp1427
a(g169
(g173
S'h)\xe9fO\xa3\x88\xbf'
p1428
tp1429
Rp1430
g169
(g173
S'\xd6\xcc\x04p\xbc\x8c\xb9\xbf'
p1431
tp1432
Rp1433
tp1434
a(g169
(g173
S'\x88P\x8c\xdd\x14\xc3\x8f?'
p1435
tp1436
Rp1437
g169
(g173
S'\x88\xf67\xcaN\xde\xbb\xbf'
p1438
tp1439
Rp1440
tp1441
a(g169
(g173
S'v\n\x83f\xc7\xa2\xa2?'
p1442
tp1443
Rp1444
g169
(g173
S'\xdd\xb1\x8b\xe4\x8a?\xbd\xbf'
p1445
tp1446
Rp1447
tp1448
asg267
(lp1449
g169
(g173
S'\xe2\xe9\xd7\xfb\xb3C\xed?'
p1450
tp1451
Rp1452
ag169
(g173
S'=\x9a\xddVdI\xed?'
p1453
tp1454
Rp1455
ag169
(g173
S'\xfaR\x9f\x068\xd5\xed?'
p1456
tp1457
Rp1458
ag169
(g173
S"\x82\xdb'\x8f\xc0]\xee?"
p1459
tp1460
Rp1461
ag169
(g173
S"\x82\xdb'\x8f\xc0]\xee?"
p1462
tp1463
Rp1464
asg311
(dp1465
g313
g314
sg315
g316
sg321
g322
sg323
(lp1466
(lp1467
asg326
g6
(S'\x00\x00\x00\x00\x00\x00'
p1468
tp1469
Rp1470
sg330
g331
ssg339
(lp1471
g341
a(lp1472
g318
ag345
ag351
ag383
ag320
aa(lp1473
g345
ag320
ag318
ag344
ag351
aa(lp1474
g345
ag320
ag351
ag318
ag344
aa(lp1475
g345
ag351
ag320
ag344
ag373
aasg362
(g169
(g173
S'AR\xccR"A\xb1\xbf'
p1476
tp1477
Rp1478
g169
(g173
S'\xda\xa4A\x8dK\xbc\xba\xbf'
p1479
tp1480
Rp1481
tp1482
sg370
g371
ssI8
(dp1483
g2
(lp1484
I0
aI0
aI0
aI0
aI0
aI0
aI0
aI0
aI0
aI1
aI0
aI1
asg4
(lp1485
(g6
(S'\x00\x08\x1a\x00\x00\x00'
p1486
tp1487
Rp1488
g10
((lp1489
g12
ag13
a(lp1490
F0.10619464955068647
aF0.027155652769690453
aF0.9053884490994342
aF0.5371984336463391
aF0.7973685154587669
aF0.6139266566830937
aF0.5877514378245696
aF0.34397139022772727
aF0.9014694562966518
aF0.4685848128012926
aF0.5109609496545987
aF0.025135825169707693
aF0.1701696627429451
aF0.08730351286543858
aF0.9386005596777661
aF0.9823132496260037
aF0.13369838856478244
aF0.926259962762543
aF0.5294893222696109
aF0.4123721138484201
aF0.47343775017463896
aF0.2686797740767133
aF0.6619076227192958
atp1491
tp1492
a(g6
(S'\x00\x08\x1b\x00\x00\x00'
p1493
tp1494
Rp1495
g20
(lp1496
F0.2693027716235956
aF0.21072680566004942
aF0.3175466182704372
aF0.295258781965953
aF0.9966666544419618
aF0.6478436470785474
aF0.10496972831945872
aF0.4776614935391946
aF0.190711750409855
aF0.15362546771114283
aF0.7771645892007828
aF0.7480349854793746
aF0.8051950630375782
aF0.5039111966573737
aF0.7324801468963978
aF0.9018197951186033
aF0.5987008428711176
aF0.3034672904698381
aF0.08916310457430277
aF0.718579667763026
aF0.7289486371925303
aF0.058736321709394246
aF0.10676833000702479
atp1497
a(g6
(S'\x00\x08\x1f\x00\x00\x00'
p1498
tp1499
Rp1500
g10
((lp1501
g12
ag13
a(lp1502
F0.2273449225878692
aF0.9965000326763
aF0.6048512941172215
aF0.8736121340175385
aF0.6994536957442039
aF0.783771720045232
aF0.89718755500657
aF0.3612096066206433
aF0.9187534871749703
aF0.4048596486529601
aF0.6357611537034176
aF0.29149518764382043
aF0.4400914780502273
aF0.8146688475104519
aF0.27424881304538173
aF0.8316317567887073
aF0.3767570748469895
aF0.5533838634764427
aF0.9387319154817132
aF0.5401265900787761
aF0.43146073703192034
aF0.5999553973866051
aF0.9097183402997875
atp1503
tp1504
a(g6
(S'\x00\x08 \x00\x00\x00'
p1505
tp1506
Rp1507
g20
(lp1508
F0.10803570456476541
aF0.19329297234339615
aF0.7680380189468524
aF0.8552884487722547
aF0.6079735584762179
aF0.7595351648828589
aF0.13952807827373848
aF0.7721580034068716
aF0.46239889050084715
aF0.2106136502748911
aF0.6931113792583857
aF0.4172479173652289
aF0.035468701506697675
aF0.014940532332804568
aF0.6165597692858403
aF0.20009266597619568
aF0.48497795886831574
aF0.5791984200586094
aF0.36169676478748936
aF0.2763423369542505
aF0.4112073952909494
aF0.6753679981339357
aF0.8534873342957012
atp1509
a(g6
(S'\x00\x08$\x00\x00\x00'
p1510
tp1511
Rp1512
g10
((lp1513
g12
ag13
a(lp1514
F0.42539474674108335
aF0.46654755713071594
aF0.14628302419117456
aF0.1680856248703274
aF0.08919039145826313
aF0.2582542682455422
aF0.36224396888488875
aF0.5875281681470407
aF0.7857649669962647
aF0.8826827362248567
aF0.055541582077602514
aF0.8685618657193984
aF0.6065762680717804
aF0.31060461941278306
aF0.6725392906919425
aF0.6037585435744256
aF0.8243147974843055
aF0.10967288223664706
aF0.6519540679245422
aF0.30605341079949333
aF0.3630484399329652
aF0.17539866061072573
aF0.22766079968130337
atp1515
tp1516
a(g6
(S'\x00\x08%\x00\x00\x00'
p1517
tp1518
Rp1519
g20
(lp1520
F0.7081615821419766
aF0.001592734912278626
aF0.884771068662576
aF0.7007053551174868
aF0.17201202520807712
aF0.8739353441745681
aF0.6998584415495044
aF0.453612687074452
aF0.2845327004341702
aF0.7666714884192727
aF0.8443443701692755
aF0.9253192394021457
aF0.3883902980118802
aF0.9251741323852477
aF0.3954020856796667
aF0.8216148601373024
aF0.8866003107353676
aF0.7184904401942895
aF0.6355810520421542
aF0.25988310729909836
aF0.8614196795569241
aF0.24298983402278118
aF0.0004797075681290952
atp1521
a(g6
(S'\x00\x08)\x00\x00\x00'
p1522
tp1523
Rp1524
g10
((lp1525
g12
ag13
a(lp1526
F0.9273784784721502
aF0.24868737249619166
aF0.36225391605159896
aF0.018626750150685045
aF0.26526475509264646
aF0.036951405312500074
aF0.23810613606786601
aF0.13121829703823185
aF0.41174994212805005
aF0.7004614656542556
aF0.5437647096857497
aF0.923946967547988
aF0.9108592623802658
aF0.6223946624233202
aF0.6497367723234766
aF0.0006214463937582737
aF0.8438169718908536
aF0.8669761068153307
aF0.5371469622899576
aF0.10385367802390166
aF0.7024621342273886
aF0.7438651906112732
aF0.053659711010432765
atp1527
tp1528
a(g6
(S'\x00\x08*\x00\x00\x00'
p1529
tp1530
Rp1531
g20
(lp1532
F0.3387291298855125
aF0.19854220946356504
aF0.23491368138547775
aF0.5535826395782952
aF0.39712791045777396
aF0.3293620442884829
aF0.25609209137999656
aF0.7325335556774328
aF0.7493944685080238
aF0.016627627375690457
aF0.7738992618968548
aF0.16011111737668338
aF0.9272158446948717
aF0.06263268362676133
aF0.2437560820031508
aF0.20498021805687772
aF0.0075296600424175075
aF0.6198727058937029
aF0.01821061993087114
aF0.968364144720361
aF0.7062165266126047
aF0.1535117557966127
aF0.46762151079969305
atp1533
a(g6
(S'\x00\x08.\x00\x00\x00'
p1534
tp1535
Rp1536
g10
((lp1537
g12
ag13
a(lp1538
F0.059166961926127803
aF0.49673780455262306
aF0.13034972273917023
aF0.44273709543884776
aF0.919769643743457
aF0.4482718931094014
aF0.674291009209999
aF0.2241989422694869
aF0.5361538833609077
aF0.19183143811640602
aF0.3177572353493493
aF0.8759549662059855
aF0.7214593957265883
aF0.8220991465517016
aF0.4843288493835616
aF0.8503337130572518
aF0.44849967692355786
aF0.18806624574485165
aF0.15297844247256487
aF0.016613855328852956
aF0.38675448399917234
aF0.9169361220500424
aF0.19249016197501012
atp1539
tp1540
a(g6
(S'\x00\x08/\x00\x00\x00'
p1541
tp1542
Rp1543
g20
(lp1544
F0.6712747186576721
aF0.8136073823329278
aF0.010529112009906694
aF0.46408371234011847
aF0.5650548583049835
aF0.4166044667159877
aF0.17862558162943087
aF0.5623203263190059
aF0.9207502859483762
aF0.8353445606186811
aF0.31264477803347357
aF0.1548048233034035
aF0.6605198583486488
aF0.5579278592525593
aF0.46871922791131704
aF0.15115776107485934
aF0.3995122553728834
aF0.23531069534240223
aF0.045935783310792955
aF0.7295479394976653
aF0.06980921423863762
aF0.5361383067843103
aF0.33206113547176774
atp1545
a(g6
(S'\x00\x083\x00\x00\x00'
p1546
tp1547
Rp1548
g10
((lp1549
g12
ag13
a(lp1550
F0.23056811543924638
aF0.5489420021177416
aF0.7631550846773308
aF0.2029605286755395
aF0.6998653756729079
aF0.09342242509809262
aF0.4228516230354251
aF0.8856471577565725
aF0.6688636773582127
aF0.02370077899526868
aF0.11988311933448026
aF0.9967444524182894
aF0.7693428418572034
aF0.0022441342866927894
aF0.7678730579945987
aF0.19686796454765088
aF0.49716677865857406
aF0.7000130504915683
aF0.4046773189464328
aF0.8154085966995825
aF0.616130117820096
aF0.16301231992329512
aF0.8253832686895903
atp1551
tp1552
a(g6
(S'\x00\x084\x00\x00\x00'
p1553
tp1554
Rp1555
g20
(lp1556
F0.992231608139119
aF0.26533381318517546
aF0.19207181071496793
aF0.46196630716736287
aF0.18702828091033596
aF0.807349469257976
aF0.06772563572139678
aF0.8620899033320245
aF0.454275281262443
aF0.6093378569321771
aF0.548746747783517
aF0.4543984510704967
aF0.7127741304349697
aF0.8897780534678759
aF0.9072336798078128
aF0.5594891209097024
aF0.09089510609611762
aF0.2534304067673877
aF0.6250799403187958
aF0.5294795599151942
aF0.18641774807726597
aF0.9297553186643789
aF0.3377732413157818
atp1557
a(g6
(S'\x00\x088\x00\x00\x00'
p1558
tp1559
Rp1560
g10
((lp1561
g12
ag13
a(lp1562
F0.20394077090084728
aF0.017876834255253993
aF0.8376691217453874
aF0.7320780067548257
aF0.6215721520157114
aF0.7459785952763612
aF0.053120935704603855
aF0.003129446727642371
aF0.6036240232686422
aF0.6499146410612292
aF0.5185857285155183
aF0.3835301181218389
aF0.34949181201760904
aF0.11468074858083455
aF0.7332181310360668
aF0.1395474516733478
aF0.7114803849326093
aF0.4149757184215337
aF0.28492955088608773
aF0.3006021925208293
aF0.6077496687155756
aF0.21084938783053186
aF0.054129818333424784
atp1563
tp1564
a(g6
(S'\x00\x089\x00\x00\x00'
p1565
tp1566
Rp1567
g20
(lp1568
F0.4681168349955197
aF0.5500267114211741
aF0.8212968959281517
aF0.9193386164165269
aF0.9555301079580454
aF0.40134002896607057
aF0.536586954528094
aF0.6998353289739553
aF0.5478166384996934
aF0.28151374586928013
aF0.6604348912783417
aF0.21004143613915893
aF0.5003849434074003
aF0.750509078375072
aF0.268802421912148
aF0.8847420075805774
aF0.5003610746515569
aF0.42092877338376933
aF0.9918018376973692
aF0.3650744624194885
aF0.7549192317002829
aF0.8636472613491806
aF0.06746434299583492
atp1569
a(g6
(S'\x00\t\x01\x00\x00\x00'
p1570
tp1571
Rp1572
g10
((lp1573
g12
ag13
a(lp1574
F0.7882682275813291
aF0.8471394605792447
aF0.9821803059217018
aF0.6341084727812639
aF0.21470876842607334
aF0.81703198918042
aF0.1836695022517456
aF0.8900405853028183
aF0.9309857817496592
aF0.006782854575790753
aF0.6101102910700369
aF0.49315212740342496
aF0.3329979402030556
aF0.1843539462746846
aF0.9411265598971765
aF0.35477978402395205
aF0.11113592054337473
aF0.23412985268497355
aF0.3157778923966418
aF0.839543048347637
aF0.7170032525744264
aF0.8882771361124799
aF0.39049752746345
atp1575
tp1576
a(g6
(S'\x00\t\x02\x00\x00\x00'
p1577
tp1578
Rp1579
g20
(lp1580
F0.6275239717123683
aF0.912378715376883
aF0.7499843956106493
aF0.9947063718103585
aF0.6233071351239228
aF0.5944682156411315
aF0.2560253740280384
aF0.24605525061614453
aF0.5105994735292064
aF0.7325380105497151
aF0.9282814128409932
aF0.12216799897188502
aF0.08261528084833725
aF0.9634184911650889
aF0.3971358409289286
aF0.42071100198697153
aF0.5788728317002769
aF0.9715385553798895
aF0.24129813561373004
aF0.030309198323803965
aF0.40926768610507147
aF0.11524053127641642
aF0.4872982676417895
atp1581
a(g6
(S'\x00\t\x06\x00\x00\x00'
p1582
tp1583
Rp1584
g10
((lp1585
g12
ag13
a(lp1586
F0.7175759356259162
aF0.5205659366447919
aF0.3914074989675246
aF0.7577672751509363
aF0.28428271303201047
aF0.6577643387181379
aF0.10634267503587913
aF0.9289202755812144
aF0.9542787862631076
aF0.5385292653725821
aF0.2833683849278883
aF0.15453113158625043
aF0.26042420765989427
aF0.11397532131841348
aF0.29001194650093176
aF0.9373017084178726
aF0.9432588497412863
aF0.6853641548269137
aF0.8783480702517926
aF0.2686733721910618
aF0.9060449963310881
aF0.25615616434597255
aF0.22140949450462355
atp1587
tp1588
a(g6
(S'\x00\t\x07\x00\x00\x00'
p1589
tp1590
Rp1591
g20
(lp1592
F0.7895188318266698
aF0.3765752196117247
aF0.5169293129838399
aF0.10056633467431642
aF0.11424825815922013
aF0.13873508309303817
aF0.6236922321937575
aF0.9865678350559963
aF0.7906682676777381
aF0.8914915339722942
aF0.41543500718692516
aF0.12362350916522713
aF0.14240407680857048
aF0.8697594329327996
aF0.7861669094108867
aF0.13488742711803559
aF0.008622645458584599
aF0.4586865053701311
aF0.22019977226970555
aF0.9076086262919308
aF0.027593060494075283
aF0.9165641402033102
aF0.27242846430717615
atp1593
a(g6
(S'\x00\t\x0b\x00\x00\x00'
p1594
tp1595
Rp1596
g10
((lp1597
g12
ag13
a(lp1598
F0.8033865597732612
aF0.03028116170048767
aF0.20272280224926564
aF0.12327146451715798
aF0.4444376348411415
aF0.6467241100314125
aF0.9015450970881386
aF0.5115341067912349
aF0.6477609813853034
aF0.6219398939623423
aF0.3410078842104475
aF0.6015834725723647
aF0.20343151095835743
aF0.04574712671977188
aF0.38983185821887156
aF0.7804895719571865
aF0.30414687676675556
aF0.3874773711231754
aF0.7504389858524435
aF0.18247747916905432
aF0.7328904080058405
aF0.17124469320036007
aF0.9408347232936952
atp1599
tp1600
a(g6
(S'\x00\t\x0c\x00\x00\x00'
p1601
tp1602
Rp1603
g20
(lp1604
F0.11804392770823458
aF0.5653028910413417
aF0.6228506596407207
aF0.11994570520663084
aF0.8124507278784565
aF0.2048569751869629
aF0.19996458500837755
aF0.6908597052164407
aF0.7853972623790156
aF0.9805633985513205
aF0.4142078068835522
aF0.07375169984661634
aF0.3008896906412616
aF0.2304253363235289
aF0.15374358472169314
aF0.7335389953013214
aF0.7132550617038683
aF0.6681053566478337
aF0.29237525105980666
aF0.6845235693346287
aF0.7796469533591542
aF0.9573165315313406
aF0.5424200119371425
atp1605
a(g6
(S'\x00\t\x10\x00\x00\x00'
p1606
tp1607
Rp1608
g10
((lp1609
g12
ag13
a(lp1610
F0.14613276430699296
aF0.4301593486152101
aF0.35642583725246024
aF0.8328170937708632
aF0.8660375911890139
aF0.7038617617051304
aF0.07931064589188319
aF0.4591306205278699
aF0.15023679435875592
aF0.0635497149287435
aF0.7734161520045009
aF0.2801183668913251
aF0.557723939943988
aF0.9848943338436987
aF0.709993196440112
aF0.47789898694637
aF0.47958616217681216
aF0.7525765351661251
aF0.43851279718312275
aF0.3711717106663869
aF0.1847243888123733
aF0.3278877199642042
aF0.503279603524859
atp1611
tp1612
a(g6
(S'\x00\t\x11\x00\x00\x00'
p1613
tp1614
Rp1615
g20
(lp1616
F0.024030233103584653
aF0.22466498480745078
aF0.02974027746941388
aF0.4181915254303986
aF0.12473746845514111
aF0.6190577299932001
aF0.09004480614694299
aF0.6269263717652613
aF0.1555626639595462
aF0.29919052648725575
aF0.9465899119872375
aF0.2966081057566623
aF0.4623468227512296
aF0.41691869377652446
aF0.40587930344905987
aF0.6083728725293758
aF0.471418625038302
aF0.07065269703110288
aF0.018015070852195336
aF0.9968511199314862
aF0.3130912651614234
aF0.4742801797856593
aF0.6394899933279712
atp1617
a(g6
(S'\x00\t\x15\x00\x00\x00'
p1618
tp1619
Rp1620
g10
((lp1621
g12
ag13
a(lp1622
F0.9602013585817157
aF0.21697173532699465
aF0.6014569310967884
aF0.2735029332426442
aF0.8243444244367051
aF0.12806937155862186
aF0.1208386038937308
aF0.010478459839275422
aF0.6049239081566745
aF0.7298004156027194
aF0.4101895523613712
aF0.9195662171482629
aF0.37323676763492397
aF0.6304006852491351
aF0.7450232474348893
aF0.1788206756343631
aF0.6755927820135823
aF0.8508656587314877
aF0.039002108055703255
aF0.0029700403314245616
aF0.8333835535444767
aF0.7590348146726562
aF0.40002762232896727
atp1623
tp1624
a(g6
(S'\x00\t\x16\x00\x00\x00'
p1625
tp1626
Rp1627
g20
(lp1628
F0.6387984682961088
aF0.6918456170912726
aF0.955859050107978
aF0.30137856648690253
aF0.8798477147385798
aF0.06748140663321023
aF0.5713983837871414
aF0.188417299979734
aF0.39329298488354336
aF0.7057861789635562
aF0.6893405284707513
aF0.32903170356287237
aF0.5118273043906502
aF0.07788574352693078
aF0.28209483759113385
aF0.36231481795327214
aF0.6382039825978134
aF0.9171617429694918
aF0.4430362803031418
aF0.33408785431083365
aF0.36500429457969996
aF0.3418729324100014
aF0.004665527570737238
atp1629
asg167
(lp1630
(g169
(g173
S'\xfc\xcbc\xe5M\xdd\xb8\xbf'
p1631
tp1632
Rp1633
g169
(g173
S'\xb5\x91zZ\x97\xa2\xb1\xbf'
p1634
tp1635
Rp1636
tp1637
a(g169
(g173
S'\xa6z\x1b\x10\x898\xbb\xbf'
p1638
tp1639
Rp1640
g169
(g173
S'\xcf4\xab\xdf>\x8d\xad\xbf'
p1641
tp1642
Rp1643
tp1644
a(g169
(g173
S'\xf3h \x0b\x94\x01\xbb\xbf'
p1645
tp1646
Rp1647
g169
(g173
S'\x04o$\x1d\x90\x1e\x9a\xbf'
p1648
tp1649
Rp1650
tp1651
a(g169
(g173
S'\xda`G\xa1\xff\xe5\xbb\xbf'
p1652
tp1653
Rp1654
g169
(g173
S'\xd5+u\x81D\xcd\x8b?'
p1655
tp1656
Rp1657
tp1658
a(g169
(g173
S'\x1d,\xc6\x8b\x85\xb8\xb2\xbf'
p1659
tp1660
Rp1661
g169
(g173
S'J\xfc\xeb\xacry\xb0?'
p1662
tp1663
Rp1664
tp1665
a(g169
(g173
S'YV-\x99\xc7\xda\x97\xbf'
p1666
tp1667
Rp1668
g169
(g173
S'\x90\x9c\xfd\xb5\x1d\xf9\xc0?'
p1669
tp1670
Rp1671
tp1672
a(g169
(g173
S'\x04\x80\xc0\x92\xc2\xaez\xbf'
p1673
tp1674
Rp1675
g169
(g173
S'\xe5C\xaa\x14\xb8m\xc7?'
p1676
tp1677
Rp1678
tp1679
a(g169
(g173
S'm\x8e:,\xbe\x8a~?'
p1680
tp1681
Rp1682
g169
(g173
S'\x18\xd8u\xa2\x04\xc1\xcd?'
p1683
tp1684
Rp1685
tp1686
a(g169
(g173
S'\xec\xa2\x1c\x19k\\\xc7?'
p1687
tp1688
Rp1689
g169
(g173
S'\x0b\x05\xcc,\xa6\x19\xd1?'
p1690
tp1691
Rp1692
tp1693
a(g169
(g173
S'm\x8e:,\xbe\x8a~?'
p1694
tp1695
Rp1696
g169
(g173
S'\x18\xd8u\xa2\x04\xc1\xcd?'
p1697
tp1698
Rp1699
tp1700
a(g169
(g173
S'L\x94\x8f\x9aW\xdf\xaf\xbf'
p1701
tp1702
Rp1703
g169
(g173
S'nT\xfa\xf5`\xf5\xd3?'
p1704
tp1705
Rp1706
tp1707
a(g169
(g173
S'm\x8e:,\xbe\x8a~?'
p1708
tp1709
Rp1710
g169
(g173
S'\x18\xd8u\xa2\x04\xc1\xcd?'
p1711
tp1712
Rp1713
tp1714
asg267
(lp1715
g169
(g173
S'\xe2\xe9\xd7\xfb\xb3C\xed?'
p1716
tp1717
Rp1718
ag169
(g173
S';\x9a\xddVdI\xed?'
p1719
tp1720
Rp1721
ag169
(g173
S'\xf5[\x8d*\xf0d\xec?'
p1722
tp1723
Rp1724
ag169
(g173
S'ZgL\x82\x16\xee\xec?'
p1725
tp1726
Rp1727
ag169
(g173
S'\x12\x1a\x08,\xe4s\xed?'
p1728
tp1729
Rp1730
ag169
(g173
S'\xdd\x8b-\xeapc\xee?'
p1731
tp1732
Rp1733
ag169
(g173
S'\r\xbc]\x1a\xa1\x93\xee?'
p1734
tp1735
Rp1736
ag169
(g173
S'\xd8\x8b$\xf3U\x90\xee?'
p1737
tp1738
Rp1739
ag169
(g173
S'\x02\x06\xfd\x0e\xeb2\xee?'
p1740
tp1741
Rp1742
ag169
(g173
S' \xd3k:\x9d\xd7\xed?'
p1743
tp1744
Rp1745
ag169
(g173
S'\x02\x06\xfd\x0e\xeb2\xee?'
p1746
tp1747
Rp1748
ag169
(g173
S'x\x80n\x92J\xda\xed?'
p1749
tp1750
Rp1751
ag169
(g173
S'\x02\x06\xfd\x0e\xeb2\xee?'
p1752
tp1753
Rp1754
asg311
(dp1755
g313
g314
sg315
g316
sg321
g322
sg323
(lp1756
(lp1757
asg326
g6
(S'\x00\x00\x00\x00\x00\x00'
p1758
tp1759
Rp1760
sg330
g331
ssg339
(lp1761
g341
a(lp1762
g380
ag354
ag344
ag343
ag375
aa(lp1763
g375
ag344
ag348
ag373
ag317
aa(lp1764
g344
ag347
ag383
ag375
ag348
aa(lp1765
g344
ag347
ag375
ag317
ag348
aa(lp1766
g347
ag354
ag351
ag344
ag320
aa(lp1767
g347
ag354
ag344
ag351
ag372
aa(lp1768
g347
ag344
ag354
ag351
ag348
aa(lp1769
g347
ag354
ag344
ag351
ag348
aa(lp1770
g347
ag344
ag354
ag351
ag348
aa(lp1771
g347
ag354
ag344
ag351
ag348
aa(lp1772
g347
ag351
ag354
ag344
ag348
aa(lp1773
g347
ag354
ag344
ag351
ag348
aasg362
(g169
(g173
S'AR\xccR"A\xb1\xbf'
p1774
tp1775
Rp1776
g169
(g173
S'\xda\xa4A\x8dK\xbc\xba\xbf'
p1777
tp1778
Rp1779
tp1780
sg370
g371
ssI9
(dp1781
g2
(lp1782
I0
aI0
aI0
aI0
asg4
(lp1783
(g6
(S'\x00\x08\x1a\x00\x00\x00'
p1784
tp1785
Rp1786
g10
((lp1787
g12
ag13
a(lp1788
F0.5580341934434129
aF0.8901214318509802
aF0.21953930803473265
aF0.8197892649212601
aF0.8393954284156073
aF0.09463165840366516
aF0.03802441529854228
aF0.03120052277797858
aF0.9427018406801435
aF0.6752273259478463
aF0.25120934786271465
aF0.10236787426403704
aF0.39432414138169536
aF0.6492640948178918
aF0.7078390811196311
aF0.5342691508641011
aF0.7036006862737089
aF0.6774259460880163
aF0.8771016291866544
aF0.4819821685089358
aF0.33921086976996295
aF0.9831927517935715
aF0.7792031403566148
atp1789
tp1790
a(g6
(S'\x00\x08\x1b\x00\x00\x00'
p1791
tp1792
Rp1793
g20
(lp1794
F0.8729472653772697
aF0.05492413923339412
aF0.8881856160187227
aF0.17736315868874897
aF0.04594608615942963
aF0.15318816724124595
aF0.8238069577294184
aF0.014534995760328129
aF0.8389183111746081
aF0.9149192556884084
aF0.43714823947113646
aF0.12435060806907916
aF0.5360090053688805
aF0.13301743492099694
aF0.44756344945294635
aF0.7641489916044729
aF0.46310655910652454
aF0.8715550623665735
aF0.0338018149285928
aF0.009737554626888412
aF0.6416415920272269
aF0.9135867522813067
aF0.9721299886106474
atp1795
a(g6
(S'\x00\x08\x1f\x00\x00\x00'
p1796
tp1797
Rp1798
g10
((lp1799
g12
ag13
a(lp1800
F0.7980892316203545
aF0.5821113309279913
aF0.11657978731127505
aF0.7485829504199875
aF0.7443814121639091
aF0.06941050906021307
aF0.3370848285757321
aF0.0745523723823216
aF0.19773042840851351
aF0.9765410573633317
aF0.13937956787131123
aF0.36544947124539473
aF0.9639229849629531
aF0.5500019018396505
aF0.8395288344633611
aF0.19293077751617693
aF0.9017878887583073
aF0.451735134396541
aF0.7281570903720957
aF0.8759403582682133
aF0.130291781578045
aF0.5561496010580157
aF0.6999714647964171
atp1801
tp1802
a(g6
(S'\x00\x08 \x00\x00\x00'
p1803
tp1804
Rp1805
g20
(lp1806
F0.03327784662659772
aF0.9970108093480815
aF0.64951809653355
aF0.8963141917475262
aF0.43142838178682874
aF0.5969962004944135
aF0.46355203609484064
aF0.7882960899892321
aF0.07218460318848952
aF0.9892637879993748
aF0.8077614452052267
aF0.5899830458750973
aF0.6317959135051456
aF0.820501921414227
aF0.274458372146158
aF0.8706977604726108
aF0.25582953495466154
aF0.5130326782310306
aF0.4970195147982498
aF0.5967109108639532
aF0.7494711343811149
aF0.5224359780923509
aF0.030756039860842743
atp1807
a(g6
(S'\x00\x08$\x00\x00\x00'
p1808
tp1809
Rp1810
g10
((lp1811
g12
ag13
a(lp1812
F0.3231169170363343
aF0.6555998921722458
aF0.10634470950337371
aF0.9252856504823959
aF0.4510481136510923
aF0.8148168992969537
aF0.7530793230868472
aF0.0701139622062179
aF0.9629222201060279
aF0.08124436004880331
aF0.5732400020212964
aF0.7649786712079405
aF0.4488593769957808
aF0.6651678067922214
aF0.8750555577535737
aF0.03511015271836182
aF0.8912770345978421
aF0.51295257798827
aF0.09142175944592612
aF0.8643592869479294
aF0.7796361470269896
aF0.3516112936317929
aF0.6128740822858225
atp1813
tp1814
a(g6
(S'\x00\x08%\x00\x00\x00'
p1815
tp1816
Rp1817
g20
(lp1818
F0.1467908415066831
aF0.7573895237638115
aF0.4910380811651014
aF0.92114261264979
aF0.4726737558442633
aF0.6679693468428033
aF0.5956561598177148
aF0.373290738825769
aF0.5384240360345355
aF0.2733954562872364
aF0.8625669029741141
aF0.8609602820443838
aF0.936396722483832
aF0.48574017396718694
aF0.9779014326546097
aF0.7212387642934752
aF0.04369609181461498
aF0.7231231836045595
aF0.04662624487864753
aF0.05793778037898478
aF0.25897498997162693
aF0.8707060314184878
aF0.37302055302667536
atp1819
a(g6
(S'\x00\x08)\x00\x00\x00'
p1820
tp1821
Rp1822
g10
((lp1823
g12
ag13
a(lp1824
F0.2960335783334581
aF0.6467936252933442
aF0.08989462384697022
aF0.14070372920187302
aF0.9720022179570255
aF0.7658795990690747
aF0.9590147339733553
aF0.6862151065428916
aF0.678216888417032
aF0.6224510220063624
aF0.2693640636121408
aF0.3994420226695028
aF0.37064758029295
aF0.2360445460889231
aF0.3051323651602864
aF0.3776717420314337
aF0.07021846133943277
aF0.26667390198197394
aF0.42470483724954655
aF0.5355405043659404
aF0.8445982877802077
aF0.6234234643386465
aF0.3451498646402662
atp1825
tp1826
a(g6
(S'\x00\x08*\x00\x00\x00'
p1827
tp1828
Rp1829
g20
(lp1830
F0.2924159520637426
aF0.20112113257127873
aF0.17598358796901303
aF0.17550987168416177
aF0.2395832490704557
aF0.22833525860099235
aF0.6084781291777833
aF0.7767993882756524
aF0.14032275558027762
aF0.6697584015451665
aF0.5266759545359694
aF0.15741761569063795
aF0.664481521831031
aF0.48335964791287933
aF0.5168334195823793
aF0.8578890125190919
aF0.459007825529662
aF0.8843381413949433
aF0.7608627571155433
aF0.045011415346927874
aF0.9056552998241799
aF0.49050766060181683
aF0.20871236908286295
atp1831
asg167
(lp1832
(g169
(g173
S'+\xb9*\xa2\xf4b\xb3\xbf'
p1833
tp1834
Rp1835
g169
(g173
S'&I\xe5{\x19\x18\xa5\xbf'
p1836
tp1837
Rp1838
tp1839
a(g169
(g173
S'\xdf\x0fy\x98\xe6h\xac?'
p1840
tp1841
Rp1842
g169
(g173
S'\x9br\xeedC\xf1\xab\xbf'
p1843
tp1844
Rp1845
tp1846
a(g169
(g173
S'\xe8\xa9,E\xa0\x14\xa0\xbf'
p1847
tp1848
Rp1849
g169
(g173
S'GMu\xda\x815\xac?'
p1850
tp1851
Rp1852
tp1853
a(g169
(g173
S'\x9e\xaawDP\xa3\xb6?'
p1854
tp1855
Rp1856
g169
(g173
S'\xb8X\xd9\x13\x9c\x16\x9d?'
p1857
tp1858
Rp1859
tp1860
asg267
(lp1861
g169
(g173
S'\xe2\xe9\xd7\xfb\xb3C\xed?'
p1862
tp1863
Rp1864
ag169
(g173
S';\x9d\xd7bLy\xed?'
p1865
tp1866
Rp1867
ag169
(g173
S'\xc8\x83\n\xfd\x17\xe2\xed?'
p1868
tp1869
Rp1870
ag169
(g173
S'N\x06\x96v\xb57\xee?'
p1871
tp1872
Rp1873
ag169
(g173
S'\xb0\x0eR\xcb\xd8\xbd\xee?'
p1874
tp1875
Rp1876
asg311
(dp1877
g313
g314
sg315
g316
sg321
g322
sg323
(lp1878
(lp1879
asg326
g6
(S'\x00\x00\x00\x00\x00\x00'
p1880
tp1881
Rp1882
sg330
g331
ssg339
(lp1883
g341
a(lp1884
g347
ag348
ag354
ag344
ag378
aa(lp1885
g347
ag354
ag348
ag344
ag383
aa(lp1886
g354
ag348
ag347
ag344
ag351
aa(lp1887
g348
ag354
ag347
ag344
ag351
aasg362
(g169
(g173
S'AR\xccR"A\xb1\xbf'
p1888
tp1889
Rp1890
g169
(g173
S'\xda\xa4A\x8dK\xbc\xba\xbf'
p1891
tp1892
Rp1893
tp1894
sg370
g371
ssI10
(dp1895
g2
(lp1896
I0
aI0
aI0
aI0
aI0
aI0
aI0
aI0
aI0
aI0
asg4
(lp1897
(g6
(S'\x00\x08\x1a\x00\x00\x00'
p1898
tp1899
Rp1900
g10
((lp1901
g12
ag13
a(lp1902
F0.7804298333460999
aF0.5427792416530087
aF0.6198386348843262
aF0.5158573187582558
aF0.8961533941976397
aF0.21298346404950352
aF0.03594287162839738
aF0.929501957049684
aF0.644392434919425
aF0.26807755139945955
aF0.41666432868896375
aF0.9455501234392877
aF0.9650273419896139
aF0.5892162095715539
aF0.6542954741323553
aF0.5555424919624742
aF0.6656465539629044
aF0.9714114088191369
aF0.86903671219833
aF0.4366939218973275
aF0.05296666848473275
aF0.7347957077393769
aF0.5163665108535225
atp1903
tp1904
a(g6
(S'\x00\x08\x1b\x00\x00\x00'
p1905
tp1906
Rp1907
g20
(lp1908
F0.07579256216628483
aF0.043169688087439595
aF0.9546070228601499
aF0.19963363562317826
aF0.19775223165237166
aF0.4510416612192246
aF0.3338512256182615
aF0.9415989585938728
aF0.28707277951773735
aF0.9311201070563044
aF0.662274370443131
aF0.6940124273011001
aF0.4011952693571137
aF0.5183056851338137
aF0.09003795755501276
aF0.5960169995051462
aF0.8538133503018144
aF0.10037239924377772
aF0.7449529087471403
aF0.5987376079518877
aF0.8249808589910543
aF0.25426772123615804
aF0.03783099870722739
atp1909
a(g6
(S'\x00\x08\x1f\x00\x00\x00'
p1910
tp1911
Rp1912
g10
((lp1913
g12
ag13
a(lp1914
F0.41702401213864915
aF0.12472169973807279
aF0.024378945302142463
aF0.3850988674823397
aF0.17639565327848028
aF0.5019667479950788
aF0.41324143517067513
aF0.5747111713476027
aF0.25700000863986805
aF0.10170089375358171
aF0.7626570913415978
aF0.3838072573156126
aF0.41607619138104057
aF0.11190587252530748
aF0.8403001756984342
aF0.4362726471535586
aF0.4037849198413005
aF0.3503269448918689
aF0.6117886712719109
aF0.04543528684347653
aF0.8221381909771289
aF0.10418548832410723
aF0.15888940982685307
atp1915
tp1916
a(g6
(S'\x00\x08 \x00\x00\x00'
p1917
tp1918
Rp1919
g20
(lp1920
F0.7946413230369254
aF0.13781288193988894
aF0.34532212627657133
aF0.09582938460990476
aF0.8781124255188882
aF0.20305684482891273
aF0.3575511371772657
aF0.16638015056376643
aF0.5925891562357675
aF0.4943856018015901
aF0.1953985659501254
aF0.27691398392814426
aF0.9660714895384714
aF0.9845798786149115
aF0.7856303414818052
aF0.24551207714897127
aF0.229033216389395
aF0.27008232079617367
aF0.4650307019223232
aF0.2626408761468363
aF0.29365505351325183
aF0.8983234974613145
aF0.34638092964757083
atp1921
a(g6
(S'\x00\x08$\x00\x00\x00'
p1922
tp1923
Rp1924
g10
((lp1925
g12
ag13
a(lp1926
F0.10017788526624394
aF0.21421956404592535
aF0.31155446020633937
aF0.8438769745113988
aF0.07858422984289437
aF0.05740790199308299
aF0.8092794034323129
aF0.25169607997087495
aF0.8887149269112158
aF0.26503045471468645
aF0.4088272057331228
aF0.6559022410604474
aF0.9729934313523692
aF0.7254188954649632
aF0.46623611970245915
aF0.241333449429307
aF0.5083098657279815
aF0.6961048955433827
aF0.5841515226612685
aF0.4826477147218148
aF0.5195895191607757
aF0.3301312892714543
aF0.05452126276984637
atp1927
tp1928
a(g6
(S'\x00\x08%\x00\x00\x00'
p1929
tp1930
Rp1931
g20
(lp1932
F0.7122617327759869
aF0.7401620065655832
aF0.46056067666694256
aF0.2346822547053422
aF0.5363141059757117
aF0.7104533036781117
aF0.24204047291937691
aF0.20122635117986643
aF0.26266092068615443
aF0.26470724592375405
aF0.3079632515822017
aF0.8385451478900706
aF0.7060514583915556
aF0.4834428248335326
aF0.7958482620914382
aF0.9169523844665161
aF0.0005392772878803909
aF0.4310554126918764
aF0.6228339000796588
aF0.6640814927933187
aF0.22865004121823906
aF0.45778189963089133
aF0.8921330718035269
atp1933
a(g6
(S'\x00\x08)\x00\x00\x00'
p1934
tp1935
Rp1936
g10
((lp1937
g12
ag13
a(lp1938
F0.5041199856020256
aF0.3212545106770649
aF0.7771437605530781
aF0.798025403927203
aF0.158467878215501
aF0.02936986104383621
aF0.8627082160973951
aF0.18072760162180612
aF0.5294629718743636
aF0.032043224147819904
aF0.6915745393997172
aF0.7542228267395407
aF0.3871278120552297
aF0.915473626085997
aF0.27307234710733397
aF0.13422690690579142
aF0.9406295690149901
aF0.364425755863675
aF0.1638395171436522
aF0.03971546336999232
aF0.016325183252545505
aF0.0060295397230305525
aF0.4875655235102321
atp1939
tp1940
a(g6
(S'\x00\x08*\x00\x00\x00'
p1941
tp1942
Rp1943
g20
(lp1944
F0.3726695087059907
aF0.07614574398098961
aF0.5964989948780209
aF0.30569735498883965
aF0.4996697928959968
aF0.46601780557461214
aF0.8996571869142589
aF0.11871917937223853
aF0.30770001745693165
aF0.4301553801288046
aF0.7006743533456494
aF0.777092877046412
aF0.25013968052245195
aF0.4381939169749478
aF0.029099782875869007
aF0.22305300892277458
aF0.8040198594154145
aF0.5715356816557584
aF0.0941927215529128
aF0.6021965426285385
aF0.9831105040228304
aF0.4118081039496211
aF0.4985173551125246
atp1945
a(g6
(S'\x00\x08.\x00\x00\x00'
p1946
tp1947
Rp1948
g10
((lp1949
g12
ag13
a(lp1950
F0.6015411336184059
aF0.6966517921432461
aF0.9453496759272602
aF0.15827444530971446
aF0.951236078742802
aF0.6828767622056329
aF0.5147965446939913
aF0.5569775692943038
aF0.4441018897240886
aF0.7778335097792214
aF0.5477117429829536
aF0.6106809322439893
aF0.09659523850900864
aF0.48583331147927344
aF0.16058110132317183
aF0.636916424272357
aF0.6000537832344343
aF0.14352825129809443
aF0.3485052594225978
aF0.6144860820040322
aF0.47041850349405445
aF0.26115988999520856
aF0.9622995874228337
atp1951
tp1952
a(g6
(S'\x00\x08/\x00\x00\x00'
p1953
tp1954
Rp1955
g20
(lp1956
F0.5776171290796748
aF0.005908108117846478
aF0.580180323622722
aF0.3964815792857802
aF0.16075809720724354
aF0.016619068289245087
aF0.7546754208586104
aF0.011172218548977209
aF0.9341868370150647
aF0.09048010299168974
aF0.08045862300134354
aF0.17224006751782428
aF0.7076698698786792
aF0.10452734961120258
aF0.3342697721332998
aF0.7318570543473238
aF0.037434081881036585
aF0.08647348101484431
aF0.10393037539101879
aF0.9548404995069686
aF0.81953137001066
aF0.20511390128833962
aF0.4459290858679238
atp1957
a(g6
(S'\x00\x083\x00\x00\x00'
p1958
tp1959
Rp1960
g10
((lp1961
g12
ag13
a(lp1962
F0.22138197826449768
aF0.44418500155860396
aF0.5762867517203701
aF0.512346688858468
aF0.5034048092346001
aF0.5911381383492869
aF0.3205757009138921
aF0.823547036567207
aF0.20489621869791153
aF0.40677161444331145
aF0.6485966713630303
aF0.008861719063725682
aF0.5169522919535942
aF0.7403236959328419
aF0.5396310214404179
aF0.652555170754116
aF0.7903583558552777
aF0.5605513348344121
aF0.3453417825723456
aF0.3898472083388468
aF0.41381102654552626
aF0.49482277519486795
aF0.8635164409572251
atp1963
tp1964
a(g6
(S'\x00\x084\x00\x00\x00'
p1965
tp1966
Rp1967
g20
(lp1968
F0.993374747010427
aF0.3779232840042728
aF0.04091470943415121
aF0.9744103924772053
aF0.4413080351214125
aF0.867518556064081
aF0.24650682167712745
aF0.7970193313864852
aF0.8693723663525673
aF0.4501493378064527
aF0.5987676115602594
aF0.43098466140217095
aF0.09818257761093452
aF0.3668265352306238
aF0.23761065763629363
aF0.47573450876849355
aF0.10915082880108207
aF0.6719655551226353
aF0.9148476175807474
aF0.5385511762170027
aF0.191883059601758
aF0.8279367665064311
aF0.9814217351011011
atp1969
a(g6
(S'\x00\x088\x00\x00\x00'
p1970
tp1971
Rp1972
g10
((lp1973
g12
ag13
a(lp1974
F0.032385514800515436
aF0.9234059191524214
aF0.1955095735092447
aF0.5574231645928304
aF0.781846648763912
aF0.44873910102354453
aF0.23640565753403397
aF0.8040199648442373
aF0.5356027008548223
aF0.712914306900664
aF0.657940189750802
aF0.7828700764116778
aF0.7611729383525635
aF0.7235354680561638
aF0.7663874822286205
aF0.714198282633337
aF0.06245297756263468
aF0.1844921117105146
aF0.9207205564199541
aF0.05226453679020571
aF0.9729873880242645
aF0.06571969057595395
aF0.4980351974089059
atp1975
tp1976
a(g6
(S'\x00\x089\x00\x00\x00'
p1977
tp1978
Rp1979
g20
(lp1980
F0.1566474691884907
aF0.07768547344704302
aF0.10528297967812461
aF0.6736154242006159
aF0.22521841951394317
aF0.8813514524758086
aF0.43891569998904056
aF0.060425750690681124
aF0.012697736847278707
aF0.006398178591654036
aF0.8266378819589754
aF0.05421578980085473
aF0.3915942184606358
aF0.5926114731952533
aF0.2597303334389245
aF0.3866164596876098
aF0.13576593030978235
aF0.2567956931919424
aF0.040783746059160575
aF0.4621999179271352
aF0.7261952488289954
aF0.8517454644728327
aF0.6223052102989736
atp1981
a(g6
(S'\x00\t\x01\x00\x00\x00'
p1982
tp1983
Rp1984
g10
((lp1985
g12
ag13
a(lp1986
F0.1494337375800796
aF0.4274171019697758
aF0.630068515306592
aF0.563171082702031
aF0.12113665770697124
aF0.03805873015246153
aF0.5040722814093259
aF0.6438221770276328
aF0.16385842429694164
aF0.32972742570150915
aF0.2720120045824198
aF0.9323003345321563
aF0.5130500234207943
aF0.05756721811228882
aF0.7952376115317693
aF0.2894431169472763
aF0.6845447062291822
aF0.8845065051363852
aF0.7737173542132082
aF0.1896967489850646
aF0.8397965581145213
aF0.9754945409757398
aF0.6801925246586432
atp1987
tp1988
a(g6
(S'\x00\t\x02\x00\x00\x00'
p1989
tp1990
Rp1991
g20
(lp1992
F0.40494807769793073
aF0.5837520368345737
aF0.5555820666596654
aF0.29784641285055613
aF0.9955632027483302
aF0.5552597456684985
aF0.732972859592014
aF0.590635839581816
aF0.2855020922910505
aF0.3586417943815967
aF0.1064038153082918
aF0.8692222234879097
aF0.8548194366887477
aF0.24694295307357683
aF0.5530978389931683
aF0.27603047819363835
aF0.9040243804421028
aF0.4945454581223756
aF0.923792988574728
aF0.8498490315825632
aF0.656410178608578
aF0.7115603802559497
aF0.2969412462722848
atp1993
a(g6
(S'\x00\t\x06\x00\x00\x00'
p1994
tp1995
Rp1996
g10
((lp1997
g12
ag13
a(lp1998
F0.8456813293744734
aF0.8357169950238011
aF0.08543006481203397
aF0.9266745744765589
aF0.4384915842030166
aF0.5191385702880928
aF0.4914221611221492
aF0.31016362332056024
aF0.9255111958348444
aF0.05493839255779054
aF0.289864742627459
aF0.8802868985430995
aF0.4073932012022181
aF0.4566033434087139
aF0.5687876098157365
aF0.9343512511611107
aF0.566583015938908
aF0.7499298678755872
aF0.4776107510161055
aF0.3113088820224864
aF0.21035698847617623
aF0.9672742424266725
aF0.9171565277178083
atp1999
tp2000
a(g6
(S'\x00\t\x07\x00\x00\x00'
p2001
tp2002
Rp2003
g20
(lp2004
F0.04595755851368266
aF0.3912656808028525
aF0.035683993480237985
aF0.9666983111465786
aF0.14334614919863897
aF0.6747460788062316
aF0.5302194980780324
aF0.9985124077047253
aF0.9260337974982327
aF0.6891576414490072
aF0.6657050359200597
aF0.8335399327101689
aF0.18972420930362743
aF0.3454234525756509
aF0.758294824578714
aF0.8391391658641661
aF0.3326083563996295
aF0.1611238710627949
aF0.16968866393958304
aF0.013647023783912915
aF0.2831737429769884
aF0.8058236374422411
aF0.8518158385114275
atp2005
a(g6
(S'\x00\t\x0b\x00\x00\x00'
p2006
tp2007
Rp2008
g10
((lp2009
g12
ag13
a(lp2010
F0.7198793637974978
aF0.5403131675007912
aF0.4510299339357551
aF0.6847761113981017
aF0.3941437350805026
aF0.8859584606398666
aF0.6522743598306602
aF0.8915663686305679
aF0.8231210308515373
aF0.3416283378154118
aF0.9275023228481357
aF0.6068938711723671
aF0.6736023434364344
aF0.17677520664843216
aF0.587185254664957
aF0.20264604383134055
aF0.47612420056745064
aF0.12602106863200746
aF0.7451429715796761
aF0.11186413353052216
aF0.6060883033395897
aF0.5648589783320929
aF0.7363740413376493
atp2011
tp2012
a(g6
(S'\x00\t\x0c\x00\x00\x00'
p2013
tp2014
Rp2015
g20
(lp2016
F0.45779211170272416
aF0.4495258577702409
aF0.556033906177389
aF0.8319769970660854
aF0.5014499381689318
aF0.5066246235953055
aF0.24063472200752878
aF0.8803483243972563
aF0.06263804472775991
aF0.8256275515283082
aF0.15113637337400232
aF0.36154429641160435
aF0.5560777149747104
aF0.26616363201442306
aF0.5733332889587704
aF0.15045176925807113
aF0.13447690611341967
aF0.14429768606148452
aF0.5352501735816335
aF0.25204638691503223
aF0.41640699370294
aF0.18921365729342976
aF0.16695094177203018
atp2017
asg167
(lp2018
(g169
(g173
S'X\xb7\xd0\xeed\xa1\xb1\xbf'
p2019
tp2020
Rp2021
g169
(g173
S'\xa4\xb3\xde\x9dcm\xba\xbf'
p2022
tp2023
Rp2024
tp2025
a(g169
(g173
S'\xbdo\xfa\xa4\xb8\xf4\xb0\xbf'
p2026
tp2027
Rp2028
g169
(g173
S'\xfc\xebB\x83\xfc\xef\xb3\xbf'
p2029
tp2030
Rp2031
tp2032
a(g169
(g173
S'\xf7la3\x80\x91\x9e\xbf'
p2033
tp2034
Rp2035
g169
(g173
S'\xd1\xbe\x19\xfa\x08\x8c\xb0\xbf'
p2036
tp2037
Rp2038
tp2039
a(g169
(g173
S'z\xde\xe5\x057\xde\x96\xbf'
p2040
tp2041
Rp2042
g169
(g173
S'\x99C\x9d-\xc2-\xae\xbf'
p2043
tp2044
Rp2045
tp2046
a(g169
(g173
S'\xcf@\x8c\x87\x0fD\xa7\xbf'
p2047
tp2048
Rp2049
g169
(g173
S'\x84\xe3\x0c\xd8\xa2+\x9d\xbf'
p2050
tp2051
Rp2052
tp2053
a(g169
(g173
S'\x0b\xe5S\xb1"U\xa3\xbf'
p2054
tp2055
Rp2056
g169
(g173
S'\xdf\x1f\x05\x189\xe4\x96?'
p2057
tp2058
Rp2059
tp2060
a(g169
(g173
S'\xeet\x1e\r\x10\xae\x99?'
p2061
tp2062
Rp2063
g169
(g173
S'C\xbd\x8d\xafu5\xb2?'
p2064
tp2065
Rp2066
tp2067
a(g169
(g173
S'\x0f\xb8\xc7! 1\x85\xbf'
p2068
tp2069
Rp2070
g169
(g173
S'\xd4\x87\x0f\xf4\x04j\xa5?'
p2071
tp2072
Rp2073
tp2074
a(g169
(g173
S'q\xe4\xea\xda7M\xa1?'
p2075
tp2076
Rp2077
g169
(g173
S'\x85\xbdY\x0f\x8b\xc6\xaa?'
p2078
tp2079
Rp2080
tp2081
a(g169
(g173
S'3Q\xd8\xa1\xd4\xcd\xb3?'
p2082
tp2083
Rp2084
g169
(g173
S'j\x91\xcaOf0\xb2?'
p2085
tp2086
Rp2087
tp2088
asg267
(lp2089
g169
(g173
S'\xe2\xe9\xd7\xfb\xb3C\xed?'
p2090
tp2091
Rp2092
ag169
(g173
S'\xe2\xe9\xd7\xfb\xb3C\xed?'
p2093
tp2094
Rp2095
ag169
(g173
S'\xc5"f\xdf\xec\xd1\xed?'
p2096
tp2097
Rp2098
ag169
(g173
S'~\xd8$\x8c\xbdZ\xee?'
p2099
tp2100
Rp2101
ag169
(g173
S'EM;_\x17\xa7\xed?'
p2102
tp2103
Rp2104
ag169
(g173
S'\xf5R\x96\x0f\x1d\x02\xee?'
p2105
tp2106
Rp2107
ag169
(g173
S'b\x11\xb3o\xf6\xe8\xee?'
p2108
tp2109
Rp2110
ag169
(g173
S'b\x11\xb3o\xf6\xe8\xee?'
p2111
tp2112
Rp2113
ag169
(g173
S'\x9d\x00;\xc6\xaf\xdc\xed?'
p2114
tp2115
Rp2116
ag169
(g173
S'\xe5>\x8b\xf2#\xc1\xee?'
p2117
tp2118
Rp2119
ag169
(g173
S'\x8a\x8e\x85\x97s\xbb\xee?'
p2120
tp2121
Rp2122
asg311
(dp2123
g313
g314
sg315
g316
sg321
g322
sg323
(lp2124
(lp2125
asg326
g6
(S'\x00\x00\x00\x00\x00\x00'
p2126
tp2127
Rp2128
sg330
g331
ssg339
(lp2129
g341
a(lp2130
g376
ag378
ag379
ag380
ag348
aa(lp2131
g348
ag354
ag347
ag382
ag344
aa(lp2132
g348
ag347
ag354
ag344
ag351
aa(lp2133
g348
ag347
ag344
ag351
ag354
aa(lp2134
g348
ag351
ag347
ag344
ag345
aa(lp2135
g348
ag347
ag351
ag317
ag344
aa(lp2136
g347
ag351
ag348
ag344
ag373
aa(lp2137
g347
ag348
ag351
ag344
ag372
aa(lp2138
g348
ag351
ag344
ag347
ag372
aa(lp2139
g348
ag351
ag344
ag347
ag372
aasg362
(g169
(g173
S'\xeaJ\xccR"A\xb1\xbf'
p2140
tp2141
Rp2142
g169
(g173
S'\x06\xaaA\x8dK\xbc\xba\xbf'
p2143
tp2144
Rp2145
tp2146
sg370
g371
ssI11
(dp2147
g2
(lp2148
I0
aI0
aI1
aI0
aI1
aI0
aI0
aI0
aI0
asg4
(lp2149
(g6
(S'\x00\x08\x1a\x00\x00\x00'
p2150
tp2151
Rp2152
g10
((lp2153
g12
ag13
a(lp2154
F0.7601163016727017
aF0.9967018416245034
aF0.9292651397141292
aF0.134815010453879
aF0.500509910987757
aF0.03227786910254393
aF0.16522354505255965
aF0.29005738431975103
aF0.8579995998280893
aF0.502462981506328
aF0.2645785789826902
aF0.1333554955557853
aF0.9778817126676117
aF0.7828833049083967
aF0.5906732587277344
aF0.9707853190390603
aF0.3306120188870061
aF0.3328379696759072
aF0.24145502159285925
aF0.6431787496884862
aF0.05294401900232126
aF0.5974825681842764
aF0.3876803934884413
atp2155
tp2156
a(g6
(S'\x00\x08\x1b\x00\x00\x00'
p2157
tp2158
Rp2159
g20
(lp2160
F0.17727491116471028
aF0.7717066417572261
aF0.27838076198010064
aF0.6588238077045688
aF0.23632792184454388
aF0.8328791602427031
aF0.6722406297838482
aF0.6499915987936644
aF0.38314068077455665
aF0.9409353869064726
aF0.6894089977023533
aF0.2427431528301004
aF0.20946788137482775
aF0.015627368966703692
aF0.7724853141703693
aF0.907137874264464
aF0.13766646420242057
aF0.6026305077330452
aF0.4257603477736446
aF0.7075872294046396
aF0.15333601678441267
aF0.7906710406390897
aF0.6666675338392798
atp2161
a(g6
(S'\x00\x08\x1f\x00\x00\x00'
p2162
tp2163
Rp2164
g10
((lp2165
g12
ag13
a(lp2166
F0.0006142648893061597
aF0.17692050346697985
aF0.924301238917519
aF0.5073221653153956
aF0.7389159378707395
aF0.1762416323650896
aF0.5734386691103331
aF0.3570097857141583
aF0.5982542011858021
aF0.42600958236314623
aF0.220277507600236
aF0.3940975214066542
aF0.41726009537161435
aF0.3495468762894941
aF0.4065262488301077
aF0.9000969380133222
aF0.5010789895803843
aF0.059042222432312386
aF0.5260929694771701
aF0.3232699178223789
aF0.27596566503183595
aF0.5221655259306814
aF0.6660308227679799
atp2167
tp2168
a(g6
(S'\x00\x08 \x00\x00\x00'
p2169
tp2170
Rp2171
g20
(lp2172
F0.2821407069378814
aF0.3697666516186997
aF0.5151162009442342
aF0.024733623024956963
aF0.8758614842257172
aF0.22428125176427205
aF0.004169637551927674
aF0.7337334528251086
aF0.03471303846960494
aF0.6178336924595401
aF0.033279203790914536
aF0.2004252198495471
aF0.561882247400416
aF0.6509113309247594
aF0.921628384497348
aF0.11494542789922402
aF0.04340984479950283
aF0.45780586716606086
aF0.5573914793945792
aF0.3085923231957307
aF0.7881354778814069
aF0.8953921640144075
aF0.07019595907979892
atp2173
a(g6
(S'\x00\x08$\x00\x00\x00'
p2174
tp2175
Rp2176
g10
((lp2177
g12
ag13
a(lp2178
F0.95148041165773
aF0.517406252739633
aF0.2596832163253564
aF0.6930585228751227
aF0.10117715697385044
aF0.46946522643880484
aF0.4376307517088236
aF0.4147932988508547
aF0.19086996884956098
aF0.3933742803160374
aF0.26666994891542106
aF0.8401463288948178
aF0.8949708352249887
aF0.1220036215168041
aF0.7677951078085888
aF0.9098996775787982
aF0.48377270344979983
aF0.5667743058336163
aF0.051389396540867494
aF0.7839754711666767
aF0.7768858018750215
aF0.5368876454169622
aF0.18699282413151974
atp2179
tp2180
a(g6
(S'\x00\x08%\x00\x00\x00'
p2181
tp2182
Rp2183
g20
(lp2184
F0.2898848682761539
aF0.267905916210994
aF0.6175498851288596
aF0.6123260721085488
aF0.30410921547169134
aF0.3467258864786805
aF0.7451909760429802
aF0.6558493461068304
aF0.8413390345987619
aF0.4986716338859135
aF0.49786379800976355
aF0.3073436540437985
aF0.3222692118646172
aF0.3996156152505097
aF0.7497768864049957
aF0.06123224977632791
aF0.11554164070208284
aF0.7902045157780764
aF0.6297941041192439
aF0.48461369870722193
aF0.06313029524203362
aF0.5684391166473357
aF0.02309598238049637
atp2185
a(g6
(S'\x00\x08)\x00\x00\x00'
p2186
tp2187
Rp2188
g10
((lp2189
g12
ag13
a(lp2190
F0.3055161546069417
aF0.4090100095474315
aF0.9650354097180779
aF0.30313536749481607
aF0.4951665491625642
aF0.18984230246655787
aF0.9455100382569669
aF0.5924348725122366
aF0.11927901932848362
aF0.2497317435213703
aF0.33744465384375544
aF0.9344330893250544
aF0.8821027334261832
aF0.2776972694195552
aF0.6265261194779571
aF0.5518203547095022
aF0.029181106975424198
aF0.9700214016613706
aF0.9107790855149506
aF0.8197981573625299
aF0.6650491702942
aF0.8573375880125393
aF0.897310280574129
atp2191
tp2192
a(g6
(S'\x00\x08*\x00\x00\x00'
p2193
tp2194
Rp2195
g20
(lp2196
F0.20033942371311775
aF0.8089152215914602
aF0.07427133519475582
aF0.16031492272152903
aF0.8960439216060672
aF0.9718444603580432
aF0.39173664472305714
aF0.8835112978836794
aF0.8905518321927293
aF0.887069972638126
aF0.21416619607612686
aF0.9413942320333558
aF0.058719236686757714
aF0.06108375726287352
aF0.11875371822457603
aF0.5848748929380723
aF0.7153178764419762
aF0.9808406938942216
aF0.4116069245010934
aF0.8167745550336057
aF0.4532253188531181
aF0.6474083520623466
aF0.42415679043749677
atp2197
a(g6
(S'\x00\x08.\x00\x00\x00'
p2198
tp2199
Rp2200
g10
((lp2201
g12
ag13
a(lp2202
F0.07604143478815706
aF0.39151874925172414
aF0.5088314026557987
aF0.3025761059386015
aF0.7845577489127462
aF0.4041773222950694
aF0.31628007125767665
aF0.20742295779665565
aF0.4918126636365663
aF0.014556213714581268
aF0.9064086438237665
aF0.09198622364318543
aF0.02574748045730557
aF0.8531798679008813
aF0.9343489148269536
aF0.973033205292544
aF0.7778250927069151
aF0.48329142526342517
aF0.6975525771417582
aF0.8297681547129094
aF0.8655904513314375
aF0.5574458648752298
aF0.08086455983685292
atp2203
tp2204
a(g6
(S'\x00\x08/\x00\x00\x00'
p2205
tp2206
Rp2207
g20
(lp2208
F0.30172749151622924
aF0.8753862716556561
aF0.1029076504697517
aF0.1600799721058438
aF0.4219818829586631
aF0.3789189544335907
aF0.5197341071202899
aF0.7285860128733133
aF0.48322972886284865
aF0.9994959553408057
aF0.877330245866714
aF0.009047366754392772
aF0.18234747475354252
aF0.5745904482033308
aF0.1605015395008068
aF0.021693575077863736
aF0.4811025362354848
aF0.6542033906388155
aF0.16600482321483812
aF0.36833515867365474
aF0.2328107033183623
aF0.06592306491404132
aF0.1076319206864933
atp2209
a(g6
(S'\x00\x083\x00\x00\x00'
p2210
tp2211
Rp2212
g10
((lp2213
g12
ag13
a(lp2214
F0.8248993728906592
aF0.4910023418778616
aF0.37631447963870335
aF0.19281676960808336
aF0.6748735423425677
aF0.13690502028856
aF0.9101294694197077
aF0.2858446836304095
aF0.9088125769130652
aF0.5565766184782125
aF0.8437804754783034
aF0.9644719974593563
aF0.5996035722218045
aF0.10386139399365679
aF0.4143413477874862
aF0.7051234767082145
aF0.22126238140808951
aF0.7564510541567291
aF0.6406312772497228
aF0.4126042749412049
aF0.2888527384203162
aF0.41915301554297457
aF0.34601070002889633
atp2215
tp2216
a(g6
(S'\x00\x084\x00\x00\x00'
p2217
tp2218
Rp2219
g20
(lp2220
F0.08001862109523661
aF0.7901134689126884
aF0.8348406053120724
aF0.8905950683809828
aF0.4233252134057828
aF0.712443164610415
aF0.9851624918823557
aF0.7511027889087357
aF0.6613253262142826
aF0.1073045080738021
aF0.49705613144884087
aF0.3212753842679106
aF0.3921759009150322
aF0.48833628207757496
aF0.9721882991436236
aF0.8797394602732633
aF0.15318126877651694
aF0.9903885519535985
aF0.3751699846227887
aF0.31154814541573095
aF0.9620669303274519
aF0.013665844997435506
aF0.2057106849981285
atp2221
a(g6
(S'\x00\x088\x00\x00\x00'
p2222
tp2223
Rp2224
g10
((lp2225
g12
ag13
a(lp2226
F0.7131842504205195
aF0.14242438859950546
aF0.7544869613769855
aF0.19670832459166243
aF0.3800336587445432
aF0.49788114523887517
aF0.9667823699397731
aF0.3265521929850168
aF0.5175078196931849
aF0.9989598077907837
aF0.6710110925058427
aF0.6788088782346007
aF0.8812710634328322
aF0.7538600020510559
aF0.29589988541845247
aF0.7814791649028414
aF0.2406913573329681
aF0.4997781882289295
aF0.32425619151734586
aF0.5292193742718119
aF0.793379325042224
aF0.8232254963079773
aF0.2225365246961749
atp2227
tp2228
a(g6
(S'\x00\x089\x00\x00\x00'
p2229
tp2230
Rp2231
g20
(lp2232
F0.3744758546237532
aF0.8771350169421238
aF0.6959648270829012
aF0.3758284214863232
aF0.9299718857311438
aF0.1111862389313173
aF0.9556153217816858
aF0.3787773627151977
aF0.4840039430616052
aF0.6580951221167112
aF0.32972262511723394
aF0.14474257398561996
aF0.35865929367876204
aF0.2291416180013245
aF0.6922757422334925
aF0.2711092606822577
aF0.38212921053173443
aF0.8461128331098119
aF0.0754008797184823
aF0.8049630428802473
aF0.1631567300535386
aF0.3444061389144414
aF0.7057768616480814
atp2233
a(g6
(S'\x00\t\x01\x00\x00\x00'
p2234
tp2235
Rp2236
g10
((lp2237
g12
ag13
a(lp2238
F0.06517062554935027
aF0.41158339183588244
aF0.1653933276824472
aF0.007995206343760719
aF0.9912546931978709
aF0.2079906911120235
aF0.20551808385341008
aF0.9592921693246251
aF0.7312054252282864
aF0.08692107888021161
aF0.8145912110991044
aF0.6732882039951542
aF0.973510942916114
aF0.40795489790709205
aF0.6510141073205354
aF0.3859909139548331
aF0.2108659624844903
aF0.4669198921899811
aF0.3972330257115073
aF0.29566557090912604
aF0.4650290293761009
aF0.5820088746791257
aF0.8422787220734406
atp2239
tp2240
a(g6
(S'\x00\t\x02\x00\x00\x00'
p2241
tp2242
Rp2243
g20
(lp2244
F0.8178126317815454
aF0.5341605526838215
aF0.01719492252688648
aF0.3991671601069665
aF0.10996953062270243
aF0.578889567770189
aF0.6606357993981623
aF0.9600473557693411
aF0.561687980501219
aF0.7621182037016215
aF0.29066955959124496
aF0.7514067508811219
aF0.7812904944843191
aF0.9257060024349378
aF0.6922173955164912
aF0.7562634676354256
aF0.204997073565088
aF0.9950735479129889
aF0.7065692315059375
aF0.0771795456603096
aF0.38150483358626364
aF0.3072271902955722
aF0.8620701643538663
atp2245
a(g6
(S'\x00\t\x06\x00\x00\x00'
p2246
tp2247
Rp2248
g10
((lp2249
g12
ag13
a(lp2250
F0.8366353693555515
aF0.6191224247131095
aF0.9411566882238805
aF0.19731812173120222
aF0.6917242435512493
aF0.7498827071409367
aF0.2481833210693012
aF0.027247857303192125
aF0.09840239063611544
aF0.9392347634644673
aF0.7990841352527288
aF0.8174505584411558
aF0.30722292038508314
aF0.9697730965334186
aF0.794402167082403
aF0.637927659840741
aF0.0709494820510147
aF0.5204547068297791
aF0.18658383426818415
aF0.6371668871641195
aF0.5281609646573522
aF0.39011835816838303
aF0.37483288029514417
atp2251
tp2252
a(g6
(S'\x00\t\x07\x00\x00\x00'
p2253
tp2254
Rp2255
g20
(lp2256
F0.8471815580928641
aF0.592500033487329
aF0.19221475583918957
aF0.5470399207983985
aF0.87480091666393
aF0.8620058027155686
aF0.597054010378606
aF0.6926555712824225
aF0.6448082197166912
aF0.814330118953621
aF0.5268440061885759
aF0.340946146386355
aF0.32906340652194577
aF0.5026586851666376
aF0.08806695490621752
aF0.6475905700352508
aF0.5006058895435558
aF0.11405533755491926
aF0.4134142927461981
aF0.9545774374195947
aF0.23944738958086365
aF0.3177717820462761
aF0.13667333721115182
atp2257
asg167
(lp2258
(g169
(g173
S'\x1d)\xc0\xcb4\xd5\xa6\xbf'
p2259
tp2260
Rp2261
g169
(g173
S'(\xec#\xe0\xef\xad\xb0\xbf'
p2262
tp2263
Rp2264
tp2265
a(g169
(g173
S'e\x12\xe3\x1fv\xd0R?'
p2266
tp2267
Rp2268
g169
(g173
S'\xfe\x1eRt\xdcz\xca\xbf'
p2269
tp2270
Rp2271
tp2272
a(g169
(g173
S'\x1d)\xc0\xcb4\xd5\xa6\xbf'
p2273
tp2274
Rp2275
g169
(g173
S'(\xec#\xe0\xef\xad\xb0\xbf'
p2276
tp2277
Rp2278
tp2279
a(g169
(g173
S'\x1d)\xc0\xcb4\xd5\xa6\xbf'
p2280
tp2281
Rp2282
g169
(g173
S'(\xec#\xe0\xef\xad\xb0\xbf'
p2283
tp2284
Rp2285
tp2286
a(g169
(g173
S'\x1d)\xc0\xcb4\xd5\xa6\xbf'
p2287
tp2288
Rp2289
g169
(g173
S'(\xec#\xe0\xef\xad\xb0\xbf'
p2290
tp2291
Rp2292
tp2293
a(g169
(g173
S'\x0e\x00\xb6?wJ\x9a\xbf'
p2294
tp2295
Rp2296
g169
(g173
S'\xfb\x9ek!\xcau\x97\xbf'
p2297
tp2298
Rp2299
tp2300
a(g169
(g173
S'\xab\x7f\x9f\xdc\xc5;\x8c\xbf'
p2301
tp2302
Rp2303
g169
(g173
S'\n%\xe5B\xda\x9fi\xbf'
p2304
tp2305
Rp2306
tp2307
a(g169
(g173
S'*b\xc8\xder\xf8\x81?'
p2308
tp2309
Rp2310
g169
(g173
S'\xb46\xb4@\xaa\x93\x9d?'
p2311
tp2312
Rp2313
tp2314
a(g169
(g173
S'\xe6\x1c\xff\xeags\xa3?'
p2315
tp2316
Rp2317
g169
(g173
S'\xbc\xedIf\x9fn\xb6?'
p2318
tp2319
Rp2320
tp2321
asg267
(lp2322
g169
(g173
S'\xe2\xe9\xd7\xfb\xb3C\xed?'
p2323
tp2324
Rp2325
ag169
(g173
S'\xed\x9f8\x07j\xa4\xed?'
p2326
tp2327
Rp2328
ag169
(g173
S'\xb3o\xf6\xe8\x03\xce\xec?'
p2329
tp2330
Rp2331
ag169
(g173
S'\xed\x9f8\x07j\xa4\xed?'
p2332
tp2333
Rp2334
ag169
(g173
S'\xed\x9f8\x07j\xa4\xed?'
p2335
tp2336
Rp2337
ag169
(g173
S'\xed\x9f8\x07j\xa4\xed?'
p2338
tp2339
Rp2340
ag169
(g173
S'\xd0\xd8\xc6\xea\xa22\xee?'
p2341
tp2342
Rp2343
ag169
(g173
S'(\x86\xc9BP5\xee?'
p2344
tp2345
Rp2346
ag169
(g173
S'\xe5>\x8b\xf2#\xc1\xee?'
p2347
tp2348
Rp2349
ag169
(g173
S'\x95D\xe6\xa2)\x1c\xef?'
p2350
tp2351
Rp2352
asg311
(dp2353
g313
g314
sg315
g316
sg321
g322
sg323
(lp2354
(lp2355
asg326
g6
(S'\x00\x00\x00\x00\x00\x00'
p2356
tp2357
Rp2358
sg330
g331
ssg339
(lp2359
g341
a(lp2360
g347
ag354
ag351
ag348
ag343
aa(lp2361
g319
ag377
ag320
ag376
ag347
aa(lp2362
g347
ag354
ag351
ag348
ag343
aa(lp2363
g347
ag354
ag351
ag348
ag343
aa(lp2364
g347
ag354
ag351
ag348
ag343
aa(lp2365
g347
ag354
ag351
ag348
ag344
aa(lp2366
g351
ag347
ag344
ag348
ag373
aa(lp2367
g347
ag351
ag344
ag348
ag373
aa(lp2368
g347
ag351
ag344
ag348
ag354
aasg362
(g169
(g173
S'AR\xccR"A\xb1\xbf'
p2369
tp2370
Rp2371
g169
(g173
S'\xda\xa4A\x8dK\xbc\xba\xbf'
p2372
tp2373
Rp2374
tp2375
sg370
g371
ss.