(dp0
I1
(dp1
S'undoIndicator'
p2
(lp3
I0
aI0
aI0
aI0
aI0
aI0
aI0
aI1
aI0
aI1
aI0
aI0
aI0
asS'logs'
p4
(lp5
(cdatetime
time
p6
(S'\x00\x08\x1a\x00\x00\x00'
p7
tp8
Rp9
S'GO1'
p10
((lp11
(I123
I131
tp12
a(I156
I177
tp13
a(lp14
F0.6403977159897541
aF0.6502584154844027
aF0.10097610752616526
aF0.9890346541552034
aF0.24120762598746404
aF0.8567824693001025
aF0.5569242900468508
aF0.2974707587721189
aF0.33462117481651354
aF0.15181632974913284
aF0.2151831912086487
aF0.4603151281604566
aF0.8820946240817078
aF0.4692427892714156
aF0.45920615997444436
aF0.3009518080579301
aF0.28376523573592627
aF0.8481453122457141
aF0.6808999097029889
aF0.306366358279042
aF0.4997063576745794
aF0.8917536563039714
aF0.757929208006011
atp15
tp16
a(g6
(S'\x00\x08\x1b\x00\x00\x00'
p17
tp18
Rp19
S'DF1'
p20
(lp21
F0.6393705549314177
aF0.4784119432685653
aF0.5977038929433761
aF0.20263124392204568
aF0.36506057466509556
aF0.6207935478903941
aF0.061693343578025805
aF0.790755282301169
aF0.011124226209661803
aF0.6403062798974053
aF0.5066235760010871
aF0.555099475256489
aF0.7806386327359452
aF0.5853441545989972
aF0.38427689831897893
aF0.33874186127679184
aF0.8682540650252601
aF0.08258489887168774
aF0.6221851240103127
aF0.5739299008690701
aF0.2020126057548166
aF0.06485329232217862
aF0.8480728992547536
atp22
a(g6
(S'\x00\x08\x1f\x00\x00\x00'
p23
tp24
Rp25
g10
((lp26
g12
ag13
a(lp27
F0.8766817359024982
aF0.06102600667680835
aF0.04610411166649353
aF0.5018186415268044
aF0.6749456378208648
aF0.42714399489970445
aF0.6420906747243377
aF0.11223221164977804
aF0.5516423379201423
aF0.6443006133915353
aF0.7588812676948385
aF0.9128259890358302
aF0.38999812721014304
aF0.24915334876764317
aF0.3195999644865857
aF0.639296463319604
aF0.7144976009088796
aF0.232454251567368
aF0.17251078304553114
aF0.7560795344437186
aF0.6952850225493075
aF0.6242410783973567
aF0.16074079890914572
atp28
tp29
a(g6
(S'\x00\x08 \x00\x00\x00'
p30
tp31
Rp32
g20
(lp33
F0.3528843257486346
aF0.7502325560634898
aF0.15684929658240987
aF0.13109399558155532
aF0.015765898864929073
aF0.9419741664812988
aF0.8856205537807821
aF0.5830993579029614
aF0.3037488865560676
aF0.06837899801560077
aF0.6624096497371428
aF0.9452824461111934
aF0.7668483415785613
aF0.23152373918410163
aF0.6377882587376296
aF0.16630833322732197
aF0.8137384189381663
aF0.9259198647468228
aF0.7829986841615079
aF0.8765634578110151
aF0.7634188974423125
aF0.7947169649515758
aF0.7908256301691925
atp34
a(g6
(S'\x00\x08$\x00\x00\x00'
p35
tp36
Rp37
g10
((lp38
g12
ag13
a(lp39
F0.8257459995036933
aF0.15829601519926617
aF0.7326373470336337
aF0.4102397602181075
aF0.4146993851494162
aF0.28543913040113367
aF0.048704814022303644
aF0.3927793675223862
aF0.9789244628659812
aF0.13879726638765677
aF0.7378331721016825
aF0.40460152522328563
aF0.17841876987740946
aF0.4892180274351202
aF0.6466343190591329
aF0.6879023886022776
aF0.06701799653889462
aF0.18110599931881322
aF0.5493934606049041
aF0.7884038980460802
aF0.2804802158653724
aF0.4524768408254468
aF0.5855061233235326
atp40
tp41
a(g6
(S'\x00\x08%\x00\x00\x00'
p42
tp43
Rp44
g20
(lp45
F0.024515773217914427
aF0.41806715694844765
aF0.7404059980937487
aF0.8754999465603436
aF0.25731505575054225
aF0.3140087448106531
aF0.06113073259126045
aF0.2056930887039271
aF0.8654254294806074
aF0.7125524309572703
aF0.40454786980592194
aF0.8067032252165527
aF0.535024150634059
aF0.4776382112164681
aF0.12957321661048382
aF0.31923369200755625
aF0.7980027228650165
aF0.5424326353423115
aF0.43724198240254397
aF0.22330231662497613
aF0.8751832245282183
aF0.05253713531172011
aF0.16726139688308883
atp46
a(g6
(S'\x00\x08)\x00\x00\x00'
p47
tp48
Rp49
g10
((lp50
g12
ag13
a(lp51
F0.6656872545754048
aF0.02478538774273309
aF0.8999638858922675
aF0.6574670340370897
aF0.8941328723039358
aF0.1446134724726037
aF0.9812877510272567
aF0.6699472354368811
aF0.7869710243261837
aF0.23252702008702886
aF0.6168771292542247
aF0.5864699347582328
aF0.311743028959096
aF0.6430583886244047
aF0.1243493461822649
aF0.2767008731031485
aF0.7572967526950413
aF0.12188624624255151
aF0.360692919453963
aF0.4445410901644177
aF0.9249235138080198
aF0.10846243003476197
aF0.1658593783034812
atp52
tp53
a(g6
(S'\x00\x08*\x00\x00\x00'
p54
tp55
Rp56
g20
(lp57
F0.8569895963415234
aF0.07908196862326722
aF0.8656703043724668
aF0.5456393580497788
aF0.6678301247738496
aF0.7536356189202624
aF0.9880642234384119
aF0.5765829180527842
aF0.33490518704275785
aF0.43427283132630734
aF0.4821502035863945
aF0.8234983646696798
aF0.45192644263298
aF0.4199410632888585
aF0.8332637346876103
aF0.728509868150588
aF0.35754068726658583
aF0.45442724098385034
aF0.5826968653793634
aF0.6912638430690313
aF0.6596911124430583
aF0.9531200639917933
aF0.3423599621022574
atp58
a(g6
(S'\x00\x08.\x00\x00\x00'
p59
tp60
Rp61
g10
((lp62
g12
ag13
a(lp63
F0.21264034213501815
aF0.1710892206301622
aF0.3782340990951253
aF0.9524252065486252
aF0.5659991072517806
aF0.2038576036862435
aF0.5657096999657761
aF0.4133346175699609
aF0.4350906751497695
aF0.7933274254700908
aF0.8972064238286087
aF0.3289402243475773
aF0.6440133684529452
aF0.6899917668727584
aF0.5335812112563575
aF0.8772927737384095
aF0.2758964998621307
aF0.2924082004819196
aF0.19270354239907905
aF0.024636378685572446
aF0.2976364156542687
aF0.10021115517592072
aF0.3523103947669174
atp64
tp65
a(g6
(S'\x00\x08/\x00\x00\x00'
p66
tp67
Rp68
g20
(lp69
F0.08685455403585662
aF0.8145557475767096
aF0.7650597145791
aF0.6873109192047081
aF0.19730432528329334
aF0.8673701947284009
aF0.10284832055337001
aF0.29107407001651764
aF0.5087924757319452
aF0.16140939119434017
aF0.1057041868051688
aF0.3911023249404313
aF0.5321633651176558
aF0.8371733747455105
aF0.16762374096990507
aF0.3627102908647317
aF0.28307300890775267
aF0.5742583711005047
aF0.8499925811160302
aF0.610176172326228
aF0.7805571632320296
aF0.40516762349606417
aF0.2709437870076522
atp70
a(g6
(S'\x00\x083\x00\x00\x00'
p71
tp72
Rp73
g10
((lp74
g12
ag13
a(lp75
F0.8860461258093528
aF0.954251964126992
aF0.027317798226017764
aF0.8522880542513239
aF0.298164019953402
aF0.1645458083130492
aF0.3330838303050947
aF0.8976107271921469
aF0.3396497950672026
aF0.8147837434613623
aF0.02147371667823439
aF0.5799989190416258
aF0.9751264280684742
aF0.06895484908001348
aF0.09314776552916393
aF0.6289372625077408
aF0.5085597342315847
aF0.9219189063868758
aF0.5433615557897519
aF0.9611011349840226
aF0.9563572903874382
aF0.4235774620063585
aF0.9690225755321283
atp76
tp77
a(g6
(S'\x00\x084\x00\x00\x00'
p78
tp79
Rp80
g20
(lp81
F0.05762869934100623
aF0.26891805745044994
aF0.920529166318402
aF0.6492922484062948
aF0.6722080471750925
aF0.7058100294617083
aF0.7569844144084299
aF0.2902463877230259
aF0.4174400148745413
aF0.8778151821300533
aF0.39655055589112886
aF0.3654906351297508
aF0.8576909777248765
aF0.2084144516263754
aF0.864360045543508
aF0.5355238839843653
aF0.0014702682523034527
aF0.45209760174579616
aF0.24159007641408126
aF0.34137934364866007
aF0.13237081642600956
aF0.9003129010904677
aF0.7815501114873362
atp82
a(g6
(S'\x00\x088\x00\x00\x00'
p83
tp84
Rp85
g10
((lp86
g12
ag13
a(lp87
F0.10624895811604163
aF0.42848499318423006
aF0.816165200221704
aF0.21544954459542975
aF0.2719890190318829
aF0.6319177999750969
aF0.5419839027663601
aF0.2563452915704044
aF0.4068297586840809
aF0.7546800438556668
aF0.3073417297021461
aF0.26388408899227556
aF0.2741970361615689
aF0.9413990125769812
aF0.8014221675442621
aF0.3597104753303424
aF0.4969512346883965
aF0.41971020763022593
aF0.4552328648966997
aF0.9554880044687849
aF0.3035293441623451
aF0.13021844350340406
aF0.8000634706329448
atp88
tp89
a(g6
(S'\x00\x089\x00\x00\x00'
p90
tp91
Rp92
g20
(lp93
F0.6833837280337114
aF0.2597906520555511
aF0.8371256685372438
aF0.7237583466632991
aF0.14205496948850316
aF0.4838982859067412
aF0.9619114559548704
aF0.004152334989665385
aF0.6289506123448714
aF0.022977199508461665
aF0.1876026397118964
aF0.9423704891947446
aF0.6230196445791344
aF0.6445750886585233
aF0.5071132997062088
aF0.8541564825328426
aF0.32246329207664626
aF0.12126241919150671
aF0.6513214698499616
aF0.09822578171878504
aF0.023941818231533074
aF0.4590873166366889
aF0.9540147834383077
atp94
a(g6
(S'\x00\t\x01\x00\x00\x00'
p95
tp96
Rp97
g10
((lp98
g12
ag13
a(lp99
F0.06378141222947853
aF0.03663055564906681
aF0.5899705350226176
aF0.22675808911024598
aF0.4093624642305036
aF0.5562667038530064
aF0.5152384601932098
aF0.9267758942475494
aF0.42379707811894196
aF0.2616728304278634
aF0.8356938189468976
aF0.8571941803478699
aF0.509932347554058
aF0.22705608221426277
aF0.15515888794718036
aF0.294216358600381
aF0.6154958052179401
aF0.6606183025704464
aF0.13394201390305138
aF0.41434860517780614
aF0.23964240104958678
aF0.6916851641666282
aF0.37548407491616964
atp100
tp101
a(g6
(S'\x00\t\x02\x00\x00\x00'
p102
tp103
Rp104
g20
(lp105
F0.4271245324348263
aF0.2506146599639195
aF0.8817011376135894
aF0.46153594334662706
aF0.7183104741720806
aF0.8097298981231393
aF0.7937037961008445
aF0.02696905359249402
aF0.6210972608246655
aF0.9252697651395672
aF0.1635488587075271
aF0.8619139496348825
aF0.7494336743578393
aF0.7222532678440331
aF0.020318683293111928
aF0.0677210707530137
aF0.6274264055791812
aF0.3525179092984614
aF0.07121889823808181
aF0.9003960086853814
aF0.30879523168808864
aF0.08994606371319336
aF0.5564755387306948
atp106
a(g6
(S'\x00\t\x06\x00\x00\x00'
p107
tp108
Rp109
g10
((lp110
g12
ag13
a(lp111
F0.08777893091997635
aF0.4433441455904753
aF0.4563856074652751
aF0.10458236245051922
aF0.8911897031560153
aF0.6383672042336531
aF0.5255372261744633
aF0.5740611729418232
aF0.45019741921534917
aF0.5047962102258231
aF0.0007579130376761389
aF0.7263259882710564
aF0.8154550204221218
aF0.8459828261666753
aF0.3804039348932291
aF0.0738523204142667
aF0.8629737475907687
aF0.26493137659213195
aF0.25816186591291024
aF0.732586351959446
aF0.8972317088836406
aF0.697928290243098
aF0.48647748560537074
atp112
tp113
a(g6
(S'\x00\t\x07\x00\x00\x00'
p114
tp115
Rp116
g20
(lp117
F0.12784164050941382
aF0.4384558679339795
aF0.41640640913692384
aF0.9176063665147702
aF0.16733672214653783
aF0.5472292318324918
aF0.8852059567966494
aF0.9950291251846588
aF0.01993835130037902
aF0.02803454516721482
aF0.13455711924166613
aF0.9807435216552971
aF0.2086331605065821
aF0.43422582881041627
aF0.21278658023900654
aF0.6560485975439448
aF0.046246974246456296
aF0.5144285757907691
aF0.4819456848814081
aF0.5344872756691708
aF0.5712105762549538
aF0.3243983507272393
aF0.6946043291768591
atp118
a(g6
(S'\x00\t\x0b\x00\x00\x00'
p119
tp120
Rp121
g10
((lp122
g12
ag13
a(lp123
F0.4490214334409527
aF0.009339071972735535
aF0.04702883640843225
aF0.40000597430690665
aF0.1481876649864532
aF0.3095960431893193
aF0.2909094419797129
aF0.07399221749684748
aF0.08575941549600752
aF0.7407513661820534
aF0.9962165588048872
aF0.1798675488053425
aF0.9279792318684311
aF0.9462800221757659
aF0.34771684484784404
aF0.5845641991719864
aF0.28366065506381843
aF0.01860071851722145
aF0.7741022815298233
aF0.7931548988085511
aF0.2648432809489334
aF0.9721087073376412
aF0.01453262575923997
atp124
tp125
a(g6
(S'\x00\t\x0c\x00\x00\x00'
p126
tp127
Rp128
g20
(lp129
F0.6604364712560084
aF0.9588529798408196
aF0.15783649429720314
aF0.14096601415415477
aF0.6858414614833322
aF0.8266827570813053
aF0.5295949469293106
aF0.06074152835995139
aF0.8001944696372146
aF0.9361172144925031
aF0.729371980959407
aF0.8994667799138272
aF0.9608160825549201
aF0.7593440755199602
aF0.5591759529373821
aF0.9022669365754907
aF0.2875373609138433
aF0.8799568967651203
aF0.5269576028768113
aF0.35172662732496207
aF0.21296482251375837
aF0.29713351388840326
aF0.3959165269253965
atp130
a(g6
(S'\x00\t\x10\x00\x00\x00'
p131
tp132
Rp133
g10
((lp134
g12
ag13
a(lp135
F0.6707314270337634
aF0.15129675218438432
aF0.5818531216831208
aF0.9474673268985799
aF0.9007262960864283
aF0.878357332516186
aF0.4340223227235309
aF0.9759920249771106
aF0.07305677087095064
aF0.1744015654673109
aF0.1625341941348828
aF0.47683388523292547
aF0.8557139792051208
aF0.11940794151948919
aF0.10044876480182763
aF0.11091698666783723
aF0.4241943561592598
aF0.8173785885491771
aF0.17894704204083278
aF0.26253676472180254
aF0.977824569809324
aF0.3063667949511051
aF0.16905443962706523
atp136
tp137
a(g6
(S'\x00\t\x11\x00\x00\x00'
p138
tp139
Rp140
g20
(lp141
F0.17236192307808618
aF0.6564850977586669
aF0.12863965239369468
aF0.5983792441960253
aF0.9172170576377344
aF0.529026573812145
aF0.7930393901454271
aF0.14645678455118083
aF0.0887677334079634
aF0.8050665503424682
aF0.7601911501122898
aF0.6363064155492623
aF0.12980151620924663
aF0.05753989705136908
aF0.19892329477267734
aF0.7737812970195176
aF0.5743757139696468
aF0.36024351664483234
aF0.12577993900393902
aF0.34998096211122354
aF0.06645134731841529
aF0.10587310444584808
aF0.4815890611910053
atp142
a(g6
(S'\x00\t\x15\x00\x00\x00'
p143
tp144
Rp145
g10
((lp146
g12
ag13
a(lp147
F0.8816318773699979
aF0.08694801953183473
aF0.7242172042163267
aF0.5406265867270894
aF0.09114769901817288
aF0.8588181195645629
aF0.9103452651356635
aF0.08484604401434226
aF0.1744562918228416
aF0.1901489635627267
aF0.875524999592123
aF0.076610763288945
aF0.3966490079257178
aF0.1317766241218825
aF0.0030855899282311583
aF0.39052800432893053
aF0.7480487601658192
aF0.7479579763936586
aF0.18129763354073647
aF0.35148605104296893
aF0.06534007386183516
aF0.6840585753619642
aF0.0022969271527245594
atp148
tp149
a(g6
(S'\x00\t\x16\x00\x00\x00'
p150
tp151
Rp152
g20
(lp153
F0.6634235789191119
aF0.8401778064991365
aF0.0024192632759136856
aF0.09722477508686855
aF0.2377217919073572
aF0.3528084912762026
aF0.7220522918406176
aF0.4025254459350468
aF0.4459051542305147
aF0.9540743543866149
aF0.2518438425693027
aF0.6877870509312629
aF0.0535051018729753
aF0.6630204881453194
aF0.45945085023959253
aF0.29667344101246673
aF0.4807551618244824
aF0.8301007065193476
aF0.889637684112872
aF0.5658404064043678
aF0.3836584712639409
aF0.8086092244019359
aF0.5082565480022945
atp154
a(g6
(S'\x00\t\x1a\x00\x00\x00'
p155
tp156
Rp157
g10
((lp158
g12
ag13
a(lp159
F0.6280988824373688
aF0.6834370870238118
aF0.8529809703007812
aF0.06606392986155352
aF0.09589836700814502
aF0.5456297295466451
aF0.8619122704175922
aF0.7632425667177112
aF0.25954133179255046
aF0.054920055186582606
aF0.8725197851459151
aF0.16596314776030563
aF0.2820231535986544
aF0.6604163012833404
aF0.8212643506143864
aF0.7095917257024602
aF0.5337143445361647
aF0.312361398884177
aF0.2839020554323678
aF0.23506548071499767
aF0.29294992062951186
aF0.02219542715993439
aF0.3541079550173616
atp160
tp161
a(g6
(S'\x00\t\x1b\x00\x00\x00'
p162
tp163
Rp164
g20
(lp165
F0.8119745929557493
aF0.41643274372679895
aF0.5608467947057274
aF0.7887278952717636
aF0.41576820000544434
aF0.7101451520979135
aF0.9132371282662972
aF0.013865237438569267
aF0.838923724981957
aF0.14881503185695577
aF0.9755324811114232
aF0.1757943798322903
aF0.7942818692376655
aF0.3898328220773365
aF0.7543438290034545
aF0.024937602831592964
aF0.2052873206473208
aF0.400666272785569
aF0.6122732708345708
aF0.30113355233094885
aF0.3019253732667938
aF0.690046422668779
aF0.7852658519498874
atp166
asS'pointsMoved'
p167
(dp168
I1
(lp169
(lp170
S'52,43,97,55,118'
p171
aS'19,58,198,64,180'
p172
aa(lp173
S'5,67,155,67,155'
p174
aS'31,73,160,73,160'
p175
aasI2
(lp176
(lp177
S'115,156,173,143,219'
p178
aS'77,207,285,176,297'
p179
aS'91,204,294,175,307'
p180
aS'105,209,306,174,322'
p181
aS'61,228,294,204,313'
p182
aS'90,227,287,207,304'
p183
aS'119,144,360,138,354'
p184
aS'88,172,371,155,361'
p185
aS'107,176,376,165,367'
p186
aS'70,200,354,177,350'
p187
aS'63,55,260,61,285'
p188
aS'84,101,235,100,269'
p189
aS'65,122,254,122,275'
p190
aS'85,104,239,104,239'
p191
aS'94,101,238,101,238'
p192
aa(lp193
S'76,129,308,129,308'
p194
aS'117,127,307,127,307'
p195
aS'125,123,313,123,313'
p196
aS'102,121,305,121,305'
p197
aS'67,107,316,107,316'
p198
aS'111,143,330,143,330'
p199
aS'106,146,312,146,312'
p200
aS'103,156,321,156,321'
p201
aS'79,111,334,111,334'
p202
aasI3
(lp203
(lp204
S'158,239,19,302,73'
p205
aS'150,277,83,294,91'
p206
aS'159,258,113,281,123'
p207
aS'134,268,195,279,186'
p208
aS'152,235,184,275,178'
p209
aS'170,311,226,320,211'
p210
aS'177,290,205,303,184'
p211
aS'174,281,205,289,198'
p212
aS'145,258,299,303,259'
p213
aS'133,241,301,282,265'
p214
aS'130,217,278,271,240'
p215
aS'92,250,226,250,226'
p216
aS'131,283,237,283,237'
p217
aS'140,279,231,288,211'
p218
aS'135,306,232,305,217'
p219
aS'138,298,252,300,224'
p220
aS'162,271,257,287,237'
p221
aS'167,276,221,283,210'
p222
aS'163,272,215,280,206'
p223
aS'144,261,208,268,199'
p224
aS'172,257,216,268,211'
p225
aS'166,258,223,274,205'
p226
aS'161,255,236,279,214'
p227
aS'141,241,255,241,255'
p228
aS'139,257,255,257,255'
p229
aS'143,261,255,261,255'
p230
aS'168,252,220,252,220'
p231
aS'142,276,239,276,239'
p232
aS'148,274,233,274,233'
p233
aS'154,288,238,288,238'
p234
aS'160,284,238,284,238'
p235
aS'169,263,205,263,205'
p236
aa(lp237
S'164,307,157,307,157'
p238
aS'175,306,149,306,149'
p239
aS'156,309,137,309,137'
p240
aS'157,333,132,333,132'
p241
aS'155,337,142,337,142'
p242
aS'171,335,151,335,151'
p243
aS'137,336,170,336,170'
p244
aS'149,293,168,293,168'
p245
aS'176,273,146,273,146'
p246
aS'151,276,140,276,140'
p247
aS'173,334,107,334,107'
p248
aS'146,364,127,364,127'
p249
aS'136,329,196,329,196'
p250
aS'147,323,193,323,193'
p251
aS'165,309,185,309,185'
p252
aS'132,289,167,289,167'
p253
aS'153,285,176,285,176'
p254
aasI4
(lp255
(lp256
S'74,75,278,106,308'
p257
aS'63,67,279,87,301'
p258
aS'85,112,283,143,337'
p259
aS'87,163,269,158,300'
p260
aS'96,188,287,173,304'
p261
aS'75,205,275,184,325'
p262
aS'61,238,289,212,322'
p263
aS'92,241,269,219,317'
p264
aS'60,233,259,200,329'
p265
aS'127,219,245,202,305'
p266
aS'129,216,238,207,308'
p267
aS'112,210,229,198,275'
p268
aS'68,198,262,179,297'
p269
aS'62,156,259,156,259'
p270
aS'128,158,258,169,287'
p271
aS'72,165,247,176,284'
p272
aS'122,193,247,169,275'
p273
aS'78,132,238,143,289'
p274
aS'100,131,226,149,280'
p275
aS'115,150,207,176,296'
p276
aS'123,161,204,158,293'
p277
aS'83,260,243,195,305'
p278
aS'118,271,191,199,256'
p279
aS'59,247,92,182,267'
p280
aS'121,110,10,159,266'
p281
aS'95,96,93,156,297'
p282
aS'110,114,142,140,262'
p283
aS'69,113,132,166,293'
p284
aS'124,105,174,164,278'
p285
aS'73,62,120,140,255'
p286
aS'71,84,217,133,261'
p287
aS'80,120,259,134,279'
p288
aS'120,112,260,124,278'
p289
aS'84,112,273,121,280'
p290
aS'4,98,260,127,283'
p291
aS'109,88,258,133,296'
p292
aS'98,62,219,124,302'
p293
aS'66,63,158,149,281'
p294
aS'94,114,280,114,280'
p295
aS'38,103,259,103,259'
p296
aS'99,100,255,100,255'
p297
aa(lp298
S'76,145,314,145,314'
p299
aS'116,146,311,146,311'
p300
aS'89,158,311,158,311'
p301
aS'82,166,317,166,317'
p302
aS'114,158,325,158,325'
p303
aS'106,155,333,155,333'
p304
aS'103,172,336,172,336'
p305
aS'111,152,353,152,353'
p306
aS'119,160,361,160,361'
p307
aS'88,185,371,185,371'
p308
aS'107,195,376,195,376'
p309
aS'117,139,334,139,334'
p310
aS'102,132,332,132,332'
p311
aS'125,133,332,133,332'
p312
aS'67,123,331,123,331'
p313
aS'79,120,338,120,338'
p314
aS'70,221,348,221,348'
p315
aS'105,206,320,206,320'
p316
aS'77,215,309,215,309'
p317
aS'91,211,316,211,316'
p318
aS'90,223,310,223,310'
p319
aS'97,108,328,108,328'
p320
aS'93,107,333,107,333'
p321
aS'104,114,311,114,311'
p322
aS'64,192,296,192,296'
p323
aS'86,190,299,190,299'
p324
aS'101,180,291,180,291'
p325
aS'113,174,289,174,289'
p326
aS'108,147,287,147,287'
p327
aS'126,144,287,144,287'
p328
aS'65,121,293,121,293'
p329
aS'81,103,304,103,304'
p330
aasI5
(lp331
(lp332
S'22,25,139,25,217'
p333
aS'46,38,197,31,238'
p334
aS'50,52,197,35,234'
p335
aS'33,82,200,42,243'
p336
aS'45,97,207,53,239'
p337
aS'57,77,197,48,235'
p338
aS'11,90,189,54,230'
p339
aS'2,61,189,46,236'
p340
aS'20,29,164,36,224'
p341
aS'9,29,151,27,230'
p342
aS'1,58,159,37,223'
p343
aS'29,58,151,39,214'
p344
aS'30,57,174,37,222'
p345
aS'28,55,178,36,231'
p346
aS'16,66,172,43,235'
p347
aS'15,69,160,46,219'
p348
aS'17,80,152,40,224'
p349
aS'48,70,145,42,237'
p350
aS'26,70,139,56,211'
p351
aS'19,56,133,42,203'
p352
aS'54,62,127,47,217'
p353
aS'55,55,119,38,192'
p354
aS'24,64,118,41,217'
p355
aS'23,75,112,45,197'
p356
aS'35,56,92,43,203'
p357
aS'44,55,77,40,165'
p358
aS'34,101,117,42,191'
p359
aS'27,96,106,37,203'
p360
aS'21,97,113,32,209'
p361
aS'38,101,112,34,221'
p362
aS'41,99,110,34,225'
p363
aS'4,101,100,39,218'
p364
aS'36,99,102,25,212'
p365
aS'25,105,96,44,209'
p366
aS'43,122,103,42,211'
p367
aS'37,98,66,42,174'
p368
aS'51,37,195,37,195'
p369
aS'12,65,182,65,182'
p370
aS'73,59,182,59,182'
p371
aS'47,31,167,31,167'
p372
aS'7,59,159,59,159'
p373
aS'40,50,172,50,172'
p374
aS'66,67,167,67,167'
p375
aa(lp376
S'5,46,244,46,244'
p377
aS'13,46,263,46,263'
p378
aS'10,40,266,40,266'
p379
aS'52,25,260,25,260'
p380
aS'18,32,305,32,305'
p381
aS'49,64,249,64,249'
p382
aS'42,20,228,20,228'
p383
aS'6,59,220,59,220'
p384
aS'8,59,225,59,225'
p385
aS'39,57,216,57,216'
p386
aS'14,12,344,12,344'
p387
aS'3,14,352,14,352'
p388
aS'0,10,199,10,199'
p389
aS'56,44,213,44,213'
p390
aS'58,43,211,43,211'
p391
aS'31,53,207,53,207'
p392
aS'53,70,219,70,219'
p393
aasI6
(lp394
(lp395
S'30,54,176,102,88'
p396
aS'121,107,257,116,62'
p397
aS'123,150,110,151,71'
p398
aS'62,153,101,154,76'
p399
aS'59,248,177,208,102'
p400
aS'118,264,122,208,72'
p401
aS'110,123,140,159,93'
p402
aS'69,115,130,136,93'
p403
aS'124,101,128,132,95'
p404
aS'95,93,140,127,89'
p405
aS'71,77,137,125,94'
p406
aS'66,62,148,137,71'
p407
aS'98,62,119,92,89'
p408
aS'83,256,106,201,59'
p409
aS'68,198,101,176,78'
p410
aS'60,242,96,209,75'
p411
aS'61,250,88,254,93'
p412
aS'92,238,74,228,65'
p413
aS'73,53,180,53,180'
p414
aS'115,153,101,153,101'
p415
aa(lp416
S'101,174,51,174,51'
p417
aS'113,182,46,182,46'
p418
aS'103,178,24,178,24'
p419
aS'82,163,36,163,36'
p420
aS'119,156,18,156,18'
p421
aS'88,180,10,180,10'
p422
aS'107,201,17,201,17'
p423
aS'77,214,39,214,39'
p424
aS'90,215,37,215,37'
p425
aS'91,210,35,210,35'
p426
aS'86,191,45,191,45'
p427
aS'87,160,57,160,57'
p428
aS'128,159,57,159,57'
p429
aS'108,147,52,147,52'
p430
aS'106,147,26,147,26'
p431
aS'114,148,30,148,30'
p432
aS'117,145,25,145,25'
p433
aS'89,149,35,149,35'
p434
aS'116,146,34,146,34'
p435
aasI7
(lp436
(lp437
S'121,109,196,141,109'
p438
aS'28,118,82,118,82'
p439
aS'29,39,161,28,161'
p440
aS'73,39,164,95,82'
p441
aa(lp442
S'101,150,40,150,40'
p443
aS'128,146,44,146,44'
p444
aS'82,138,27,138,27'
p445
aS'119,132,17,132,17'
p446
aS'88,157,10,157,10'
p447
aS'103,160,14,160,14'
p448
aasI8
(lp449
(lp450
S'158,302,376,318,278'
p451
aS'141,226,115,259,158'
p452
aS'143,239,100,265,165'
p453
aS'130,250,99,273,170'
p454
aS'61,250,82,275,154'
p455
aS'162,263,87,280,148'
p456
aS'133,267,97,276,128'
p457
aS'170,300,88,304,135'
p458
aS'137,323,113,301,155'
p459
aS'136,334,113,310,150'
p460
aS'134,284,118,298,152'
p461
aS'163,276,120,297,140'
p462
aS'131,278,110,303,150'
p463
aS'145,267,96,303,145'
p464
aS'142,261,96,293,129'
p465
aS'140,253,84,286,117'
p466
aS'60,233,79,230,76'
p467
aS'139,237,79,287,143'
p468
aS'138,285,114,285,114'
p469
aa(lp470
S'149,333,205,333,205'
p471
aS'155,346,200,346,200'
p472
aS'171,356,198,356,198'
p473
aS'173,322,209,322,209'
p474
aS'150,318,219,318,219'
p475
aS'164,320,217,320,217'
p476
aS'151,334,229,334,229'
p477
aS'153,336,233,336,233'
p478
aS'175,329,235,329,235'
p479
aS'156,325,222,325,222'
p480
aS'177,325,224,325,224'
p481
aS'172,297,227,297,227'
p482
aS'166,302,211,302,211'
p483
aS'176,308,210,308,210'
p484
aS'146,364,184,364,184'
p485
aS'159,302,275,302,275'
p486
aasI9
(lp487
(lp488
S'18,56,332,47,233'
p489
aS'14,36,336,41,237'
p490
aS'3,35,346,38,239'
p491
aS'10,35,262,31,233'
p492
aS'52,32,257,28,229'
p493
aS'5,56,257,45,238'
p494
aS'49,70,260,57,237'
p495
aS'28,43,163,48,200'
p496
aS'54,54,152,52,203'
p497
aS'26,55,148,56,196'
p498
aS'1,44,146,55,189'
p499
aS'19,47,144,51,193'
p500
aS'55,51,155,51,170'
p501
aS'24,37,122,26,198'
p502
aS'35,40,118,30,170'
p503
aS'23,46,110,28,154'
p504
aS'44,43,107,24,152'
p505
aS'27,82,123,57,169'
p506
aS'34,78,117,63,159'
p507
aS'41,85,114,66,166'
p508
aS'21,74,105,69,158'
p509
aS'32,66,101,65,155'
p510
aS'36,83,103,68,152'
p511
aS'38,81,100,65,152'
p512
aS'4,88,92,69,165'
p513
aS'25,84,92,64,157'
p514
aS'37,87,90,62,155'
p515
aS'43,107,99,74,161'
p516
aS'13,54,258,54,258'
p517
aS'40,47,163,47,163'
p518
aa(lp519
S'15,63,190,63,190'
p520
aS'30,58,188,58,188'
p521
aS'47,34,189,34,189'
p522
aS'51,30,201,30,201'
p523
aS'46,34,211,34,211'
p524
aS'39,52,205,52,205'
p525
aS'50,55,200,55,200'
p526
aS'56,46,210,46,210'
p527
aS'31,56,221,56,221'
p528
aS'6,46,226,46,226'
p529
aS'58,51,229,51,229'
p530
aS'8,64,222,64,222'
p531
aS'53,69,212,69,212'
p532
aS'16,73,199,73,199'
p533
aS'45,84,201,84,201'
p534
aS'11,79,187,79,187'
p535
aS'33,73,184,73,184'
p536
aS'57,71,189,71,189'
p537
aS'12,61,182,61,182'
p538
aS'2,53,174,53,174'
p539
aS'7,45,186,45,186'
p540
aS'9,29,191,29,191'
p541
aS'42,20,221,20,221'
p542
aS'0,10,217,10,217'
p543
aS'20,21,181,21,181'
p544
aS'22,10,158,10,158'
p545
aS'48,72,166,72,166'
p546
aS'17,84,173,84,173'
p547
aasI10
(lp548
(lp549
S'158,310,376,316,234'
p550
aS'159,306,274,309,238'
p551
aS'60,232,75,224,74'
p552
aS'139,233,72,295,170'
p553
aS'141,224,106,294,193'
p554
aS'161,253,123,282,164'
p555
aS'143,236,94,265,148'
p556
aS'61,248,69,248,69'
p557
aS'118,246,78,245,78'
p558
aS'130,253,97,284,153'
p559
aS'142,257,90,280,138'
p560
aS'162,260,81,283,138'
p561
aS'133,268,97,276,144'
p562
aS'145,269,95,290,141'
p563
aS'134,285,109,291,149'
p564
aS'131,277,105,291,153'
p565
aS'138,284,109,293,146'
p566
aS'163,275,109,287,144'
p567
aS'170,296,81,296,141'
p568
aS'137,320,107,299,135'
p569
aS'136,335,107,332,143'
p570
aS'140,247,76,247,76'
p571
aa(lp572
S'173,321,200,321,200'
p573
aS'176,313,204,313,204'
p574
aS'166,307,212,307,212'
p575
aS'172,303,225,303,225'
p576
aS'150,320,213,320,213'
p577
aS'164,321,211,321,211'
p578
aS'156,326,215,326,215'
p579
aS'177,329,224,329,224'
p580
aS'153,342,233,342,233'
p581
aS'175,333,231,333,231'
p582
aS'151,338,228,338,228'
p583
aS'149,336,201,336,201'
p584
aS'155,348,194,348,194'
p585
aS'171,357,193,357,193'
p586
aS'146,364,177,364,177'
p587
aS'167,309,180,309,180'
p588
aS'148,302,168,302,168'
p589
aS'168,275,171,275,171'
p590
aS'169,273,171,273,171'
p591
aS'152,284,158,284,158'
p592
aS'174,290,154,290,154'
p593
aS'157,321,161,321,161'
p594
aasI11
(lp595
(lp596
S'121,88,224,155,95'
p597
aS'73,36,170,134,72'
p598
aS'71,67,131,148,69'
p599
aS'66,62,125,138,61'
p600
aS'59,239,123,189,68'
p601
aS'60,238,88,211,62'
p602
aS'83,248,86,195,48'
p603
aS'61,257,88,198,45'
p604
aS'70,236,59,214,48'
p605
aS'92,232,55,205,44'
p606
aS'98,69,107,106,69'
p607
aa(lp608
S'76,145,57,145,57'
p609
aS'111,139,20,139,20'
p610
aS'117,134,17,134,17'
p611
aS'119,141,16,141,16'
p612
aS'89,126,27,126,27'
p613
aS'106,131,22,131,22'
p614
aS'114,129,26,129,26'
p615
aS'116,128,27,128,27'
p616
aS'128,151,34,151,34'
p617
aS'108,138,34,138,34'
p618
aS'82,145,28,145,28'
p619
aS'101,159,34,159,34'
p620
aS'88,165,10,165,10'
p621
aS'103,173,14,173,14'
p622
aS'113,176,29,176,29'
p623
aS'105,174,43,174,43'
p624
aS'86,181,32,181,32'
p625
aS'64,184,45,184,45'
p626
aS'129,193,43,193,43'
p627
aS'75,204,43,204,43'
p628
aS'127,201,54,201,54'
p629
aS'96,198,46,198,46'
p630
aS'112,188,57,188,57'
p631
aS'77,199,20,199,20'
p632
aS'90,204,24,204,24'
p633
aS'91,196,21,196,21'
p634
aS'107,197,21,197,21'
p635
aS'72,151,67,151,67'
p636
aS'78,148,65,148,65'
p637
aS'122,157,56,157,56'
p638
aS'126,138,59,138,59'
p639
aS'65,131,59,131,59'
p640
aS'87,134,45,134,45'
p641
aS'84,119,52,119,52'
p642
aS'80,105,50,105,50'
p643
aS'94,109,48,109,48'
p644
aS'102,116,40,116,40'
p645
aS'125,115,33,115,33'
p646
aS'97,106,33,106,33'
p647
aS'93,95,34,95,34'
p648
aS'67,99,45,99,45'
p649
aS'79,98,44,98,44'
p650
aS'85,99,43,99,43'
p651
aassS'layouts'
p652
(lp653
(cnumpy.core.multiarray
scalar
p654
(cnumpy
dtype
p655
(S'f8'
p656
I0
I1
tp657
Rp658
(I3
S'<'
p659
NNNI-1
I-1
I0
tp660
bS'\xbf~r\xf7\xaa\xcf\xb3?'
p661
tp662
Rp663
g654
(g658
S'x\xfa\xa6\x92\xb6`\xb9?'
p664
tp665
Rp666
tp667
a(g654
(g658
S'\xf0\xad\xf7Q\xd8n\xb3?'
p668
tp669
Rp670
g654
(g658
S'\xc4\xc0\xcaO\xc4j\xb8?'
p671
tp672
Rp673
tp674
a(g654
(g658
S'\xf7\x94\x9b\xdf\x16\x19\xb3?'
p675
tp676
Rp677
g654
(g658
S"\xb3\xf9'\xe7\xd4\x0f\xb7?"
p678
tp679
Rp680
tp681
a(g654
(g658
S'Q\xb6\xf9\x88\xc6P\xa5?'
p682
tp683
Rp684
g654
(g658
S'\x12\xc2\x03\xddu\xc2\xad?'
p685
tp686
Rp687
tp688
a(g654
(g658
S'\xbfz\x8br\\\x7f\xa5?'
p689
tp690
Rp691
g654
(g658
S'X\x9eU\xfb\x99i\xa5?'
p692
tp693
Rp694
tp695
a(g654
(g658
S'8I.=QX\x80?'
p696
tp697
Rp698
g654
(g658
S'ukwS\xa7\xcca\xbf'
p699
tp700
Rp701
tp702
a(g654
(g658
S'\x1d\xcc.\xd9$\xc3\x86\xbf'
p703
tp704
Rp705
g654
(g658
S'\xf7zB\xfa\xe1\xf5\x9b\xbf'
p706
tp707
Rp708
tp709
a(g654
(g658
S'8I.=QX\x80?'
p710
tp711
Rp712
g654
(g658
S'ukwS\xa7\xcca\xbf'
p713
tp714
Rp715
tp716
a(g654
(g658
S'\xec\x10H\x88wWz\xbf'
p717
tp718
Rp719
g654
(g658
S'\xb9\xdd\xf5\\\xebu\x8a?'
p720
tp721
Rp722
tp723
a(g654
(g658
S'8I.=QX\x80?'
p724
tp725
Rp726
g654
(g658
S'ukwS\xa7\xcca\xbf'
p727
tp728
Rp729
tp730
a(g654
(g658
S'\x7fPNp"we\xbf'
p731
tp732
Rp733
g654
(g658
S'a\x98\xcc\x17\x13\xd5\x94\xbf'
p734
tp735
Rp736
tp737
a(g654
(g658
S'\xce:\x1d\xa5\xc7.\x99\xbf'
p738
tp739
Rp740
g654
(g658
S'\xe1\xec\xcdh\x8c>\x8e\xbf'
p741
tp742
Rp743
tp744
a(g654
(g658
S'Pr]\x96:\x13\xad\xbf'
p745
tp746
Rp747
g654
(g658
S'\x90\xdb\x91#\xae\x9a\xab\xbf'
p748
tp749
Rp750
tp751
asS'KNNAcc'
p752
(lp753
g654
(g658
S'\xe2\xe9\xd7\xfb\xb3C\xed?'
p754
tp755
Rp756
ag654
(g658
S'\xed\x9f8\x07j\xa4\xed?'
p757
tp758
Rp759
ag654
(g658
S'v%\xc7\x83\n\xfd\xed?'
p760
tp761
Rp762
ag654
(g658
S'((((((\xee?'
p763
tp764
Rp765
ag654
(g658
S'(\x86\xc9BP5\xee?'
p766
tp767
Rp768
ag654
(g658
S'\xbd\xc1\xb8\xca\xa6\xee\xee?'
p769
tp770
Rp771
ag654
(g658
S'\x0b\xbfW&\x89\xc3\xee?'
p772
tp773
Rp774
ag654
(g658
S'\xe3A\x85\xfe\x0b\xf1\xee?'
p775
tp776
Rp777
ag654
(g658
S'\x0b\xbfW&\x89\xc3\xee?'
p778
tp779
Rp780
ag654
(g658
S'\x95D\xe6\xa2)\x1c\xef?'
p781
tp782
Rp783
ag654
(g658
S'\x0b\xbfW&\x89\xc3\xee?'
p784
tp785
Rp786
ag654
(g658
S'\x95D\xe6\xa2)\x1c\xef?'
p787
tp788
Rp789
ag654
(g658
S'\xbd\xc1\xb8\xca\xa6\xee\xee?'
p790
tp791
Rp792
ag654
(g658
S'\x95D\xe6\xa2)\x1c\xef?'
p793
tp794
Rp795
asS'observations'
p796
(dp797
S'gender'
p798
S'm'
p799
sS'comments'
p800
(lp801
S'Malic_acid'
p802
aS'Ash'
p803
aS'Alcalinity_of_ash'
p804
aS'Magnesium'
p805
asS'job'
p806
S'student'
p807
sS'insight_names'
p808
(lp809
(lp810
asS'starttime'
p811
g6
(S'\x00\x00\x00\x00\x00\x00'
p812
tp813
Rp814
sS'insights'
p815
(dp816
g815
(dp817
S'notes'
p818
S'xyz'
p819
sg803
I1
sS'time'
p820
g6
(S'\x00\x0b\x05\x00\x00\x00'
p821
tp822
Rp823
ssssS'topFeatures'
p824
(lp825
S'NA All Weights Equal'
p826
a(lp827
S'Proanthocyanins'
p828
ag803
ag805
aS'Hue'
p829
aS'Flavanoids'
p830
aa(lp831
S'Color_intensity'
p832
ag830
ag805
ag828
aS'Alcohol'
p833
aa(lp834
g830
ag805
ag803
ag833
ag804
aa(lp835
g832
ag833
aS'OD280/OD315_diluted_wines'
p836
ag830
ag804
aa(lp837
g832
ag833
ag830
ag836
ag829
aa(lp838
g832
ag836
ag833
ag829
aS'Proline'
p839
aa(lp840
g832
ag833
ag836
ag829
ag839
aa(lp841
g832
ag836
ag833
ag829
ag839
aa(lp842
g836
ag832
ag833
ag829
ag839
aa(lp843
g832
ag836
ag833
ag829
ag839
aa(lp844
g832
ag836
ag833
ag829
ag839
aa(lp845
g836
ag832
ag833
ag829
ag839
aa(lp846
g832
ag836
ag833
ag829
ag839
aasS'initLayoutPoint'
p847
(g654
(g658
S'\xb8p\x8a\xb8f\xa0\xb2?'
p848
tp849
Rp850
g654
(g658
S'\xc0\x8fE\x1b \xe8\xbc?'
p851
tp852
Rp853
tp854
sS'terms'
p855
(lp856
g833
ag802
ag803
ag804
ag805
aS'Total_phenols'
p857
ag830
aS'Nonflavanoid_phenols'
p858
ag828
ag832
ag829
ag836
ag839
aS'noise1'
p859
aS'noise2'
p860
aS'noise3'
p861
aS'noise4'
p862
aS'noise5'
p863
aS'noise6'
p864
aS'noise7'
p865
aS'noise8'
p866
aS'noise9'
p867
aS'noise10'
p868
assI2
(dp869
g2
(lp870
I0
aI0
aI0
aI0
aI0
aI0
aI0
aI0
asg4
(lp871
(g6
(S'\x00\x08\x1a\x00\x00\x00'
p872
tp873
Rp874
g10
((lp875
g12
ag13
a(lp876
F0.20736706479780365
aF0.7825350414065856
aF0.46720513790762197
aF0.13626606052189272
aF0.8274822403070504
aF0.011407485701060205
aF0.4785440901567486
aF0.8079786733386836
aF0.02956712414396001
aF0.9128435592765931
aF0.29712711804469505
aF0.34174074374634145
aF0.25994843321979777
aF0.109240997503391
aF0.8232838078265732
aF0.16509115214482528
aF0.5352927254854029
aF0.8484607604484751
aF0.5960042391245489
aF0.3680543724314821
aF0.22567183507552957
aF0.510730561676163
aF0.5452972860196205
atp877
tp878
a(g6
(S'\x00\x08\x1b\x00\x00\x00'
p879
tp880
Rp881
g20
(lp882
F0.38741687009644776
aF0.9673005883833354
aF0.6565314855453452
aF0.959500347980616
aF0.789327188031321
aF0.1832729774923213
aF0.7220354120098755
aF0.268384381373589
aF0.2644467211687398
aF0.880698336662253
aF0.6578420602608595
aF0.868351078302059
aF0.28751399068767813
aF0.1732987665543375
aF0.3212926599477265
aF0.8218844034801488
aF0.8264106939959825
aF0.03389045615693398
aF0.5602007375287308
aF0.8380860946448224
aF0.7257896935668741
aF0.07014756788860954
aF0.7513036553246875
atp883
a(g6
(S'\x00\x08\x1f\x00\x00\x00'
p884
tp885
Rp886
g10
((lp887
g12
ag13
a(lp888
F0.17345226896005728
aF0.29397893596674507
aF0.5502911248753597
aF0.3619771475684369
aF0.13267886166529408
aF0.3192838939795388
aF0.057167848059723525
aF0.26261762711022274
aF0.8231181409668052
aF0.7511573918884259
aF0.6685726492584677
aF0.5683867969760563
aF0.2194113339642535
aF0.24484948664870698
aF0.521853850140999
aF0.25571030881932644
aF0.02964104961087588
aF0.6715981257751273
aF0.02485934496888309
aF0.9703353406117925
aF0.21921309040096237
aF0.05530199672104519
aF0.41639031072613153
atp889
tp890
a(g6
(S'\x00\x08 \x00\x00\x00'
p891
tp892
Rp893
g20
(lp894
F0.20236147388838943
aF0.9548153377933586
aF0.46299459112097163
aF0.10199794965768139
aF0.9907515621389894
aF0.8626487565647185
aF0.16828443147416583
aF0.5847271109478165
aF0.5484963917023605
aF0.09037923241521217
aF0.6696725236242922
aF0.945772565642124
aF0.33957887342466064
aF0.13416201875993194
aF0.29549399501374696
aF0.30837353882087326
aF0.20434603050471845
aF0.34175581880167716
aF0.5933386204408901
aF0.5353291532501804
aF0.29053709486491675
aF0.7423449506681403
aF0.6505823932638486
atp895
a(g6
(S'\x00\x08$\x00\x00\x00'
p896
tp897
Rp898
g10
((lp899
g12
ag13
a(lp900
F0.5806382824430508
aF0.3917100895779473
aF0.16183571290099896
aF0.5888974142765185
aF0.31378267975526997
aF0.7589248399627689
aF0.4353599692772012
aF0.29298820012768356
aF0.4568225125688925
aF0.7479577785344471
aF0.7118111642722847
aF0.1550048335202494
aF0.6694186043973059
aF0.07264981284577432
aF0.2448851146778217
aF0.22864740535157924
aF0.35397533168289685
aF0.0706123677572098
aF0.740718242138532
aF0.7079581331596148
aF0.34370030006332386
aF0.37613162367773567
aF0.5401894290583548
atp901
tp902
a(g6
(S'\x00\x08%\x00\x00\x00'
p903
tp904
Rp905
g20
(lp906
F0.9388831601869921
aF0.14508740382969643
aF0.8284367996923854
aF0.3832970107973719
aF0.5700322789158571
aF0.7175244089467601
aF0.4712912052879571
aF0.7255213259772199
aF0.8294813532522926
aF0.8775459751786613
aF0.83518289786418
aF0.8181468154604737
aF0.8399443001603003
aF0.5945287178878564
aF0.7296047685018886
aF0.5612435411542853
aF0.7096264474141895
aF0.7892836353019936
aF0.4514980836578665
aF0.8508720535061169
aF0.6468441640267889
aF0.39840698184572
aF0.3164172495351286
atp907
a(g6
(S'\x00\x08)\x00\x00\x00'
p908
tp909
Rp910
g10
((lp911
g12
ag13
a(lp912
F0.5392794118716959
aF0.4954439319032361
aF0.6511344243657368
aF0.9609875160332378
aF0.5132763732008297
aF0.2045137631749233
aF0.9254771265218689
aF0.5531030499528544
aF0.5892643675585155
aF0.4707232680998835
aF0.5073000858455247
aF0.4091187856385511
aF0.6315080087442895
aF0.007150305529835976
aF0.6077737772376101
aF0.14945059511870262
aF0.7356584711100119
aF0.2727753944275577
aF0.10576897603742919
aF0.4755262101554568
aF0.7236042099513532
aF0.8995292626592445
aF0.18974125265259345
atp913
tp914
a(g6
(S'\x00\x08*\x00\x00\x00'
p915
tp916
Rp917
g20
(lp918
F0.1423053200955764
aF0.4347942996766688
aF0.8941183985828313
aF0.9226944903590577
aF0.7060365777634998
aF0.6914836514562611
aF0.35268865849537345
aF0.8710718056292668
aF0.2040885713494991
aF0.6357549150807343
aF0.7311695313065109
aF0.3432755308319303
aF0.6489521398764646
aF0.4101247068136382
aF0.21857010128430598
aF0.6763945703568732
aF0.12453903089331841
aF0.11571927166157303
aF0.44587889111876544
aF0.6401987395931614
aF0.23493696348156867
aF0.7922943548341534
aF0.3818851327493886
atp919
a(g6
(S'\x00\x08.\x00\x00\x00'
p920
tp921
Rp922
g10
((lp923
g12
ag13
a(lp924
F0.2960438298476128
aF0.6349537016939255
aF0.5880452071402497
aF0.018250157814536094
aF0.1405208320991589
aF0.5888869777639711
aF0.07208091603638156
aF0.37263911089366764
aF0.9532095280112807
aF0.9101952364469772
aF0.612357185329812
aF0.8602424000793597
aF0.3463830914439061
aF0.8982947051837875
aF0.2839549988244503
aF0.9482882260008368
aF0.8946243450320962
aF0.5544121981386165
aF0.7846451114691094
aF0.7450601774491887
aF0.23645329559118422
aF0.9483496245649385
aF0.555752666647643
atp925
tp926
a(g6
(S'\x00\x08/\x00\x00\x00'
p927
tp928
Rp929
g20
(lp930
F0.4615408906105821
aF0.2159352161147795
aF0.8668255309322022
aF0.5974182188648686
aF0.9100521086415995
aF0.5746080211048227
aF0.005441295614642239
aF0.29890481413441483
aF0.20206042508404898
aF0.15652818843941263
aF0.9545993489719484
aF0.42251861614945174
aF0.9049164342397312
aF0.35782279593059174
aF0.35579302782548516
aF0.193677811911112
aF0.16797026318607367
aF0.0015110284309519662
aF0.8758212449422241
aF0.7563646378480499
aF0.5965434340528565
aF0.426633443393431
aF0.15309674075699442
atp931
a(g6
(S'\x00\x083\x00\x00\x00'
p932
tp933
Rp934
g10
((lp935
g12
ag13
a(lp936
F0.13036566255445847
aF0.6032530307054692
aF0.07700681770165385
aF0.11856148771081798
aF0.5302096325465283
aF0.5073703192161473
aF0.04677600189825759
aF0.3272785275807871
aF0.09742716534389118
aF0.08496086722407215
aF0.7465524459488374
aF0.6541389222451054
aF0.9705174900350518
aF0.7347295553197635
aF0.3184914817290726
aF0.7929075806563146
aF0.9740761739760226
aF0.13834609358447136
aF0.871928297944945
aF0.32073913834130463
aF0.8491644318366673
aF0.9253235956286673
aF0.11692105279546683
atp937
tp938
a(g6
(S'\x00\x084\x00\x00\x00'
p939
tp940
Rp941
g20
(lp942
F0.6487826440762339
aF0.11989017486885079
aF0.802584263337877
aF0.9290493143016454
aF0.2942985034451633
aF0.946073731266994
aF0.21934498163838367
aF0.4698955640624214
aF0.6266665883385434
aF0.5810994245567594
aF0.6286651043995727
aF0.6506159033571038
aF0.9344805802852221
aF0.25971738834374203
aF0.8303419560014629
aF0.6419871276050666
aF0.7178756114519028
aF0.5237022905086784
aF0.5506118707557138
aF0.8841627427950347
aF0.4721932090426385
aF0.4878681213589813
aF0.8873755766662237
atp943
a(g6
(S'\x00\x088\x00\x00\x00'
p944
tp945
Rp946
g10
((lp947
g12
ag13
a(lp948
F0.03584671723282784
aF0.16890644682297928
aF0.9879245067567103
aF0.8670912784038025
aF0.4933869116872769
aF0.3336957627505398
aF0.7787582773502422
aF0.7349545336008738
aF0.42179419482037794
aF0.3749587640196641
aF0.9089584480347505
aF0.2940748075365045
aF0.19560278745669435
aF0.9517710002129831
aF0.4113404503783532
aF0.6959684609198693
aF0.53662960756509
aF0.4830033993943492
aF0.5225202580709344
aF0.5713441344573338
aF0.1875773588442139
aF0.5738721178924401
aF0.1676619187755488
atp949
tp950
a(g6
(S'\x00\x089\x00\x00\x00'
p951
tp952
Rp953
g20
(lp954
F0.5041129899710218
aF0.019334277795013732
aF0.9195695653763887
aF0.9882560799952452
aF0.8368947944908008
aF0.7336073999806144
aF0.1676183602031216
aF0.5562808094824415
aF0.7977539568120031
aF0.7468188210937666
aF0.9147566696377929
aF0.011182159178385165
aF0.9424826408612148
aF0.8090621834311753
aF0.2203656450613819
aF0.32096403276052266
aF0.6335745521845336
aF0.2634356677408489
aF0.9856628612878916
aF0.0877262332573866
aF0.6356347582837367
aF0.9661960182247473
aF0.18677371796387343
atp955
a(g6
(S'\x00\t\x01\x00\x00\x00'
p956
tp957
Rp958
g10
((lp959
g12
ag13
a(lp960
F0.6520470065561472
aF0.6584549372855911
aF0.802175453642162
aF0.3505669668863175
aF0.7814333549759299
aF0.8322325043662909
aF0.5898795239679906
aF0.9914587752414402
aF0.6655224451677358
aF0.9456816405523545
aF0.20161910606707878
aF0.1895272626433503
aF0.3758671962621398
aF0.415329582941637
aF0.05983463609362871
aF0.5024804392135932
aF0.6781637932631116
aF0.6243282871650306
aF0.39634301387801707
aF0.1914312219587958
aF0.4421807649154872
aF0.16626685326778712
aF0.49766567874865164
atp961
tp962
a(g6
(S'\x00\t\x02\x00\x00\x00'
p963
tp964
Rp965
g20
(lp966
F0.5650481976539939
aF0.40985846127477243
aF0.5369288320722361
aF0.7367230764581516
aF0.694098305577997
aF0.5183220901425138
aF0.7630283009504872
aF0.7257806965075363
aF0.08402057844545308
aF0.6731750967572538
aF0.9330015240423898
aF0.1824027634355022
aF0.5165712428601834
aF0.11573345454091921
aF0.036615941119998996
aF0.6573751675518078
aF0.6716579475487419
aF0.2564730762631773
aF0.8904614044935045
aF0.4591874033156397
aF0.7524301239685327
aF0.24773630158983895
aF0.9155403307116633
atp967
asg167
(dp968
I1
(lp969
(lp970
S'59,230,39,163,129'
p971
aS'121,118,10,140,121'
p972
aS'123,142,170,145,204'
p973
aS'128,151,180,152,205'
p974
aS'115,136,165,138,193'
p975
aa(lp976
S'128,152,205,152,205'
p977
aS'123,145,204,145,204'
p978
aS'115,138,193,138,193'
p979
aS'113,151,212,151,212'
p980
aS'126,149,222,149,222'
p981
aS'101,156,217,156,217'
p982
aS'62,134,218,134,218'
p983
aS'87,135,215,135,215'
p984
aS'108,136,221,136,221'
p985
aasI2
(lp986
(lp987
S'95,109,84,154,187'
p988
aS'69,115,131,137,185'
p989
aS'121,124,120,149,171'
p990
aS'59,236,127,187,175'
p991
aS'118,266,136,184,193'
p992
aa(lp993
S'128,175,231,175,231'
p994
aS'129,192,229,192,229'
p995
aS'122,193,244,193,244'
p996
aS'113,189,254,189,254'
p997
aS'101,186,259,186,259'
p998
aS'126,176,264,176,264'
p999
aS'108,167,260,167,260'
p1000
aS'62,167,250,167,250'
p1001
aS'87,165,275,165,275'
p1002
aS'89,166,289,166,289'
p1003
aS'76,171,305,171,305'
p1004
aS'111,174,306,174,306'
p1005
aS'106,178,310,178,310'
p1006
aS'82,176,318,176,318'
p1007
aS'103,179,326,179,326'
p1008
aS'88,198,346,198,346'
p1009
aS'107,205,350,205,350'
p1010
aS'96,168,271,168,271'
p1011
aS'117,153,291,153,291'
p1012
aS'116,153,302,153,302'
p1013
aS'125,149,301,149,301'
p1014
aS'67,146,309,146,309'
p1015
aS'102,143,307,143,307'
p1016
aS'97,139,320,139,320'
p1017
aasI3
(lp1018
(lp1019
S'118,264,199,186,239'
p1020
aS'59,226,201,173,243'
p1021
aS'121,136,193,165,231'
p1022
aS'95,120,209,153,238'
p1023
aS'69,123,222,150,232'
p1024
aS'34,121,235,142,240'
p1025
aS'110,123,236,136,253'
p1026
aa(lp1027
S'101,188,289,188,289'
p1028
aS'126,181,292,181,292'
p1029
aS'76,176,305,176,305'
p1030
aS'108,177,295,177,295'
p1031
aS'113,197,283,197,283'
p1032
aS'122,198,279,198,279'
p1033
aS'87,169,304,169,304'
p1034
aS'89,165,315,165,315'
p1035
aS'117,165,316,165,316'
p1036
aS'125,155,319,155,319'
p1037
aS'67,145,324,145,324'
p1038
aS'102,149,322,149,322'
p1039
aS'116,158,324,158,324'
p1040
aS'96,181,298,181,298'
p1041
aS'79,144,335,144,335'
p1042
aS'97,148,335,148,335'
p1043
aS'114,185,317,185,317'
p1044
aS'111,174,322,174,322'
p1045
aS'106,184,327,184,327'
p1046
aS'82,178,335,178,335'
p1047
aS'128,185,273,185,273'
p1048
aS'115,187,260,187,260'
p1049
aS'80,156,285,156,285'
p1050
aS'78,163,285,163,285'
p1051
aS'99,148,292,148,292'
p1052
aS'85,143,295,143,295'
p1053
aS'129,198,262,198,262'
p1054
aasI4
(lp1055
(lp1056
S'43,134,283,114,167'
p1057
aS'32,126,284,111,181'
p1058
aS'4,125,290,108,193'
p1059
aS'37,118,285,99,198'
p1060
aS'36,125,283,111,200'
p1061
aS'25,131,305,118,177'
p1062
aS'38,123,259,118,187'
p1063
aS'34,120,246,115,199'
p1064
aS'21,117,267,103,229'
p1065
aS'41,106,261,100,225'
p1066
aS'27,103,250,93,227'
p1067
aS'44,89,292,103,150'
p1068
aS'24,88,276,101,141'
p1069
aS'35,80,277,50,229'
p1070
aS'66,104,258,104,258'
p1071
aa(lp1072
S'15,91,191,91,191'
p1073
aS'45,91,188,91,188'
p1074
aS'16,84,196,84,196'
p1075
aS'50,79,197,79,197'
p1076
aS'30,73,199,73,199'
p1077
aS'39,76,195,76,195'
p1078
aS'46,56,204,56,204'
p1079
aS'7,69,211,69,211'
p1080
aS'9,53,213,53,213'
p1081
aS'8,79,174,79,174'
p1082
aS'12,80,183,80,183'
p1083
aS'11,96,171,96,171'
p1084
aS'13,92,169,92,169'
p1085
aS'26,89,229,89,229'
p1086
aS'48,92,225,92,225'
p1087
aS'28,82,229,82,229'
p1088
aS'29,77,229,77,229'
p1089
aasI5
(lp1090
(lp1091
S'140,250,263,250,188'
p1092
aS'142,252,266,251,173'
p1093
aS'145,242,261,243,187'
p1094
aS'139,230,266,248,176'
p1095
aS'143,227,268,240,183'
p1096
aS'141,208,254,255,198'
p1097
aS'130,228,253,246,202'
p1098
aS'133,231,250,255,207'
p1099
aS'162,265,254,302,211'
p1100
aS'170,283,253,310,197'
p1101
aS'158,232,10,243,161'
p1102
aa(lp1103
S'148,257,190,257,190'
p1104
aS'174,253,194,253,194'
p1105
aS'132,270,189,270,189'
p1106
aS'165,286,190,286,190'
p1107
aS'135,302,192,302,192'
p1108
aS'154,289,209,289,209'
p1109
aS'134,274,210,274,210'
p1110
aS'147,274,206,274,206'
p1111
aasI6
(lp1112
(lp1113
S'121,135,237,206,281'
p1114
aS'22,65,245,225,290'
p1115
aS'24,96,282,229,286'
p1116
aS'71,127,273,226,293'
p1117
aS'98,123,271,229,287'
p1118
aS'66,124,280,225,309'
p1119
aS'63,131,296,223,327'
p1120
aS'69,150,278,245,315'
p1121
aS'95,139,258,241,329'
p1122
aS'124,135,289,240,348'
p1123
aS'73,70,243,70,243'
p1124
aS'35,96,281,96,281'
p1125
aS'74,98,280,98,280'
p1126
aS'110,150,278,150,278'
p1127
aa(lp1128
S'80,178,324,178,324'
p1129
aS'87,184,325,184,325'
p1130
aS'106,199,335,199,335'
p1131
aS'89,177,337,177,337'
p1132
aS'97,176,345,176,345'
p1133
aS'116,179,340,179,340'
p1134
aS'108,195,328,195,328'
p1135
aS'114,190,333,190,333'
p1136
aS'72,186,290,186,290'
p1137
aS'111,192,336,192,336'
p1138
aS'117,192,337,192,337'
p1139
aS'82,195,342,195,342'
p1140
aS'125,173,339,173,339'
p1141
aS'67,164,332,164,332'
p1142
aS'99,168,316,168,316'
p1143
aS'85,166,329,166,329'
p1144
aS'79,161,342,161,342'
p1145
aS'93,165,340,165,340'
p1146
aS'102,167,340,167,340'
p1147
aS'84,167,322,167,322'
p1148
aS'126,192,314,192,314'
p1149
aS'76,204,309,204,309'
p1150
aS'101,206,311,206,311'
p1151
aS'128,204,314,204,314'
p1152
aS'122,203,315,203,315'
p1153
aS'78,192,298,192,298'
p1154
aS'115,195,290,195,290'
p1155
aS'65,180,302,180,302'
p1156
aS'88,212,335,212,335'
p1157
aasI7
(lp1158
(lp1159
S'63,121,296,280,343'
p1160
aS'36,126,287,227,345'
p1161
aS'69,132,281,247,346'
p1162
aS'110,141,280,250,320'
p1163
aS'121,130,245,215,337'
p1164
aS'95,126,261,241,329'
p1165
aS'71,115,275,256,334'
p1166
aS'74,84,276,260,353'
p1167
aS'73,56,242,258,334'
p1168
aS'32,120,279,281,317'
p1169
aS'124,124,287,124,287'
p1170
aS'98,114,275,114,275'
p1171
aS'66,113,279,113,279'
p1172
aa(lp1173
S'126,183,317,183,317'
p1174
aS'113,206,313,206,313'
p1175
aS'108,182,331,182,331'
p1176
aS'102,153,338,153,338'
p1177
aS'84,152,321,152,321'
p1178
aS'99,158,316,158,316'
p1179
aS'80,163,326,163,326'
p1180
aS'87,167,328,167,328'
p1181
aS'89,160,338,160,338'
p1182
aS'116,161,342,161,342'
p1183
aS'125,160,339,160,339'
p1184
aS'82,178,342,178,342'
p1185
aS'106,182,337,182,337'
p1186
aS'111,179,337,179,337'
p1187
aS'114,177,335,177,335'
p1188
aS'117,178,339,178,339'
p1189
aS'67,146,329,146,329'
p1190
aS'85,150,329,150,329'
p1191
aS'62,169,290,169,290'
p1192
aS'72,173,296,173,296'
p1193
aS'115,184,294,184,294'
p1194
aS'78,178,301,178,301'
p1195
aS'65,169,302,169,302'
p1196
aasI8
(lp1197
(lp1198
S'159,303,157,303,157'
p1199
aS'158,306,183,306,183'
p1200
aa(lp1201
S'177,260,127,260,127'
p1202
aS'173,267,121,267,121'
p1203
aS'155,281,127,281,127'
p1204
aS'156,272,122,272,122'
p1205
aS'157,265,139,265,139'
p1206
aS'166,247,129,247,129'
p1207
aS'172,246,125,246,125'
p1208
aS'176,253,122,253,122'
p1209
aS'167,261,157,261,157'
p1210
aassg652
(lp1211
(g654
(g658
S'\x8d[\x8dR\x8c\xc6\xa8?'
p1212
tp1213
Rp1214
g654
(g658
S'\x98\x1aX\xb6;\xf3\xb8?'
p1215
tp1216
Rp1217
tp1218
a(g654
(g658
S'\xac\x96u\x04cRz?'
p1219
tp1220
Rp1221
g654
(g658
S'\xe2\x84\x90\xc6\xfa\x05\xaf?'
p1222
tp1223
Rp1224
tp1225
a(g654
(g658
S'\x1b\xe5b\x8bo\xef\x98\xbf'
p1226
tp1227
Rp1228
g654
(g658
S'\xed\xb3\x1a\x1f\xeb\x07\xa2?'
p1229
tp1230
Rp1231
tp1232
a(g654
(g658
S'\x1fU\x1b"\xff\xc2\xa8\xbf'
p1233
tp1234
Rp1235
g654
(g658
S'\x07\xbd54\xb6K{?'
p1236
tp1237
Rp1238
tp1239
a(g654
(g658
S'\xa8\x14\x91\xa7\xd4\x91\xb3\xbf'
p1240
tp1241
Rp1242
g654
(g658
S"'\xa7\xcf\xca\xde.\x81?"
p1243
tp1244
Rp1245
tp1246
a(g654
(g658
S'E\x01)\x88\xe8f\xb3\xbf'
p1247
tp1248
Rp1249
g654
(g658
S'b\xacQo0\x15\x81\xbf'
p1250
tp1251
Rp1252
tp1253
a(g654
(g658
S'\xae\x7f\xd2V\xd2\x93\xb0\xbf'
p1254
tp1255
Rp1256
g654
(g658
S'#\x92\x04\x8d\xd2\x96\x93?'
p1257
tp1258
Rp1259
tp1260
a(g654
(g658
S'\xae\x7f\xd2V\xd2\x93\xb0\xbf'
p1261
tp1262
Rp1263
g654
(g658
S'#\x92\x04\x8d\xd2\x96\x93?'
p1264
tp1265
Rp1266
tp1267
asg752
(lp1268
g654
(g658
S'\xe2\xe9\xd7\xfb\xb3C\xed?'
p1269
tp1270
Rp1271
ag654
(g658
S'\x96J\xe3\xb1\x14O\xed?'
p1272
tp1273
Rp1274
ag654
(g658
S'\xfa\xadF\x15x\xb2\xed?'
p1275
tp1276
Rp1277
ag654
(g658
S'\xaa\xb6\x9b\xd1e=\xee?'
p1278
tp1279
Rp1280
ag654
(g658
S'\xd23n\xf9\xe2\x0f\xee?'
p1281
tp1282
Rp1283
ag654
(g658
S'[\xb9\xfcu\x83h\xee?'
p1284
tp1285
Rp1286
ag654
(g658
S'(\x86\xc9BP5\xee?'
p1287
tp1288
Rp1289
ag654
(g658
S'\xf8U\x99\x12 \x05\xee?'
p1290
tp1291
Rp1292
ag654
(g658
S'\xf8U\x99\x12 \x05\xee?'
p1293
tp1294
Rp1295
asg796
(dp1296
g798
g799
sg800
g801
sg806
g807
sg808
(lp1297
(lp1298
asg811
g6
(S'\x00\x00\x00\x00\x00\x00'
p1299
tp1300
Rp1301
sg815
g816
ssg824
(lp1302
g826
a(lp1303
g839
ag832
ag805
ag858
ag857
aa(lp1304
g832
ag839
ag857
ag858
ag836
aa(lp1305
g832
ag839
ag857
ag833
ag858
aa(lp1306
g832
ag839
ag857
ag858
ag836
aa(lp1307
g839
ag832
ag836
ag857
ag833
aa(lp1308
g839
ag832
ag836
ag857
ag833
aa(lp1309
g839
ag857
ag832
ag833
ag836
aa(lp1310
g839
ag857
ag832
ag833
ag836
aasg847
(g654
(g658
S'\xb8p\x8a\xb8f\xa0\xb2?'
p1311
tp1312
Rp1313
g654
(g658
S'\xc0\x8fE\x1b \xe8\xbc?'
p1314
tp1315
Rp1316
tp1317
sg855
g856
ssI4
(dp1318
g2
(lp1319
I0
aI0
aI0
aI0
aI1
aI0
aI0
aI0
aI0
aI0
aI0
aI0
aI0
aI0
asg4
(lp1320
(g6
(S'\x00\x08\x1a\x00\x00\x00'
p1321
tp1322
Rp1323
g10
((lp1324
g12
ag13
a(lp1325
F0.5569612078847992
aF0.6615362350682524
aF0.1365400346328568
aF0.07120377871077921
aF0.7570451284494075
aF0.060467545203567896
aF0.7747708452309522
aF0.06988415381979629
aF0.8166278498751836
aF0.5170945226854238
aF0.8484358858041877
aF0.7772892069351073
aF0.5267490449627324
aF0.92422093890575
aF0.5832332847200133
aF0.6424691434060823
aF0.46726621944026514
aF0.661954500879575
aF0.9506750275938697
aF0.12376890208588132
aF0.515314863750687
aF0.8003595581015683
aF0.06304540638639078
atp1326
tp1327
a(g6
(S'\x00\x08\x1b\x00\x00\x00'
p1328
tp1329
Rp1330
g20
(lp1331
F0.8329080908244313
aF0.4004691773745509
aF0.6965318220440505
aF0.012711648587083846
aF0.8219907114706744
aF0.4404566386384814
aF0.5867235152510282
aF0.3572260870680253
aF0.06455831931168776
aF0.05316920085177146
aF0.5740505105723918
aF0.8810854751483183
aF0.510258116021693
aF0.6104143525072049
aF0.23899988367941238
aF0.9566233967051351
aF0.37977659794362306
aF0.3980728811337202
aF0.07632144310762523
aF0.531853134341275
aF0.22856934018075492
aF0.07284378507258504
aF0.9268377213574066
atp1332
a(g6
(S'\x00\x08\x1f\x00\x00\x00'
p1333
tp1334
Rp1335
g10
((lp1336
g12
ag13
a(lp1337
F0.44580031300384804
aF0.5055987747843765
aF0.19570249316863264
aF0.28249765998467946
aF0.588415079014771
aF0.5012106975402226
aF0.006670094268727
aF0.1710072695492314
aF0.10591896846832971
aF0.26069068149936037
aF0.775887886354543
aF0.5314995064219542
aF0.3473357545582896
aF0.3745889902554723
aF0.7709141958640494
aF0.3942863649893733
aF0.9305385588385215
aF0.8043988370976445
aF0.1301996048681373
aF0.18165932853937694
aF0.06950289679158383
aF0.3459643827097951
aF0.9126976100872463
atp1338
tp1339
a(g6
(S'\x00\x08 \x00\x00\x00'
p1340
tp1341
Rp1342
g20
(lp1343
F0.21507660793210004
aF0.9280025621892367
aF0.8751267315541003
aF0.4794899956427119
aF0.9653546575556212
aF0.805825987722477
aF0.11029674023247082
aF0.9999646068100457
aF0.5026108272055307
aF0.6896245615492637
aF0.15356565138905887
aF0.7397853788723503
aF0.3116608328579178
aF0.581967180115703
aF0.6690229746631837
aF0.8599079564129546
aF0.02183646634479397
aF0.752967675054097
aF0.5942921148752284
aF0.7399179690870323
aF0.11566002965124256
aF0.25655979949572627
aF0.7960962353815766
atp1344
a(g6
(S'\x00\x08$\x00\x00\x00'
p1345
tp1346
Rp1347
g10
((lp1348
g12
ag13
a(lp1349
F0.9380138884242101
aF0.93082663463244
aF0.7280677424371582
aF0.9238815648875918
aF0.06124902011474809
aF0.8343379185806301
aF0.0038479554531960503
aF0.45969167721595583
aF0.2817498259750184
aF0.9269090069916848
aF0.579589697520955
aF0.730122258478962
aF0.5745252707791042
aF0.37454554681655716
aF0.6034316217036862
aF0.7179880852319784
aF0.5472404314602072
aF0.9688433551235159
aF0.12339989175021959
aF0.9100818635829343
aF0.004783140474195258
aF0.23780001637318327
aF0.46764490389533964
atp1350
tp1351
a(g6
(S'\x00\x08%\x00\x00\x00'
p1352
tp1353
Rp1354
g20
(lp1355
F0.8046340041561998
aF0.8764183112250792
aF0.6271578153541442
aF0.48138422215556353
aF0.976638610542069
aF0.5118092040377554
aF0.5812967867865498
aF0.8684737305761641
aF0.6540628285066021
aF0.7679698723225015
aF0.07887706115888238
aF0.1947520762713113
aF0.04401823324012344
aF0.28276465273153273
aF0.4227789718482152
aF0.4983951338454302
aF0.1746229640422179
aF0.5371275826625993
aF0.3318497961542052
aF0.7188854021162839
aF0.5772893109792401
aF0.07813726385121467
aF0.3857080060901755
atp1356
a(g6
(S'\x00\x08)\x00\x00\x00'
p1357
tp1358
Rp1359
g10
((lp1360
g12
ag13
a(lp1361
F0.34278597357238716
aF0.8100388246291019
aF0.739467197455377
aF0.9488438690528233
aF0.4404065244147026
aF0.19488637342110038
aF0.9824175780873835
aF0.33769902633298665
aF0.6868113333381304
aF0.9824483923027653
aF0.4427171683347302
aF0.19316246048402497
aF0.8197319005270559
aF0.8913659941972483
aF0.01848560411007416
aF0.5543461958295617
aF0.27862419483349943
aF0.8372163946500936
aF0.6778958870288996
aF0.2256492850832802
aF0.046853926735503815
aF0.41010497683423586
aF0.9871827502561491
atp1362
tp1363
a(g6
(S'\x00\x08*\x00\x00\x00'
p1364
tp1365
Rp1366
g20
(lp1367
F0.4265167988088385
aF0.9416945715010666
aF0.07972886943721591
aF0.7963253736293342
aF0.8764732902309865
aF0.07433007076469256
aF0.5968059017180751
aF0.9363980298941786
aF0.8859100724108742
aF0.5146971857077136
aF0.594963584643861
aF0.5725334954759231
aF0.4965452086769033
aF0.833227621038287
aF0.19501608515483604
aF0.06319612318704315
aF0.5604359978358501
aF0.8586087546378336
aF0.9344887014295925
aF0.09907905353856628
aF0.38276998057627376
aF0.766973879794209
aF0.00849441253474037
atp1368
a(g6
(S'\x00\x08.\x00\x00\x00'
p1369
tp1370
Rp1371
g10
((lp1372
g12
ag13
a(lp1373
F0.6523353374976822
aF0.45520986735616586
aF0.24364515562105193
aF0.05174309535455679
aF0.6625827580640975
aF0.5175302693238673
aF0.27940545630893143
aF0.3759001357389412
aF0.3353773986851212
aF0.8055852853183747
aF0.8848459742562631
aF0.7082043091086407
aF0.15493260494351135
aF0.788384714881546
aF0.1069761922979463
aF0.8249963430822982
aF0.6643503681685029
aF0.9940712928401522
aF0.9717705583603234
aF0.8036866691080982
aF0.8337725114923015
aF0.5404412910172255
aF0.9961330479771912
atp1374
tp1375
a(g6
(S'\x00\x08/\x00\x00\x00'
p1376
tp1377
Rp1378
g20
(lp1379
F0.5956977187699843
aF0.4888476664878678
aF0.566139282200674
aF0.8748126888737268
aF0.2642611018525052
aF0.3547631840427359
aF0.458625034176242
aF0.06356562617861217
aF0.16878241046612685
aF0.3198184936346241
aF0.10399044921803191
aF0.2926326702475942
aF0.7187058284279292
aF0.47913209341014895
aF0.4819731661627741
aF0.7457380299978286
aF0.6743217884860678
aF0.6672472931548324
aF0.3585606908330926
aF0.5992718342894223
aF0.003848574190529641
aF0.9339991989020827
aF0.5156755293333181
atp1380
a(g6
(S'\x00\x083\x00\x00\x00'
p1381
tp1382
Rp1383
g10
((lp1384
g12
ag13
a(lp1385
F0.5151113845480105
aF0.3449108210924602
aF0.540275106959918
aF0.5905095580525418
aF0.146590587681234
aF0.07453742870786206
aF0.8265772018383238
aF0.9328198872988046
aF0.5582973449495224
aF0.9854029750012744
aF0.5378763060501507
aF0.8376705481972719
aF0.5979704117481062
aF0.2179668452505441
aF0.45388566589324275
aF0.0004610189088734007
aF0.2179222773780486
aF0.5248256238768979
aF0.6278620732174607
aF0.8719056490214865
aF0.8246864565035494
aF0.5292185658649442
aF0.5442067268196442
atp1386
tp1387
a(g6
(S'\x00\x084\x00\x00\x00'
p1388
tp1389
Rp1390
g20
(lp1391
F0.9206778331865685
aF0.2603893386855869
aF0.1827617358852417
aF0.2646962275253193
aF0.7122765075419695
aF0.8166086793581686
aF0.8739190044391103
aF0.8691753961343175
aF0.0048490749251850485
aF0.2861282213895706
aF0.30723726973629384
aF0.4408489396867218
aF0.43685022482861713
aF0.9871961651962017
aF0.9637527410994061
aF0.5086473452593859
aF0.3545440403055704
aF0.2603092292905439
aF0.8379853231837289
aF0.24006591350263906
aF0.938209849243773
aF0.15983037911456732
aF0.11308789152395682
atp1392
a(g6
(S'\x00\x088\x00\x00\x00'
p1393
tp1394
Rp1395
g10
((lp1396
g12
ag13
a(lp1397
F0.1159038121391055
aF0.7773435122160084
aF0.9400273022220629
aF0.4130255734947953
aF0.6479409896062537
aF0.675549101122924
aF0.8477900344916551
aF0.9173212938495031
aF0.9370691575784922
aF0.40598441670717156
aF0.18534252355026548
aF0.42795478880619253
aF0.33481354194648005
aF0.904158722773057
aF0.6996901432883522
aF0.3605894444986927
aF0.8921039467426832
aF0.2784250080278884
aF0.9595998984405164
aF0.024661024043595492
aF0.9622214137227277
aF0.8184264938193718
aF0.10117193041543815
atp1398
tp1399
a(g6
(S'\x00\x089\x00\x00\x00'
p1400
tp1401
Rp1402
g20
(lp1403
F0.3259157083124
aF0.08754063431820203
aF0.5328626318017461
aF0.9478652268858305
aF0.509691891129926
aF0.05547852993294844
aF0.0905038726369789
aF0.4201713026772742
aF0.39706177741973037
aF0.8038200165005989
aF0.12901987502337253
aF0.34462964020466713
aF0.08347256400709868
aF0.5970046585005586
aF0.8666147220733883
aF0.511020174756445
aF0.25259761970884376
aF0.13091740161218324
aF0.05883552066827302
aF0.719586060062107
aF0.8803312648334273
aF0.6170554233579209
aF0.54744852106233
atp1404
a(g6
(S'\x00\t\x01\x00\x00\x00'
p1405
tp1406
Rp1407
g10
((lp1408
g12
ag13
a(lp1409
F0.8460337546735899
aF0.633896276838225
aF0.9836477730309089
aF0.11624002135900757
aF0.29919492726561914
aF0.6070658881263866
aF0.4794741683834538
aF0.2609687405798523
aF0.2104852170537863
aF0.021714747389053768
aF0.7224033106821627
aF0.9382597812318473
aF0.7424918916352315
aF0.10177943047751026
aF0.525139692067976
aF0.03942252965206783
aF0.7128955833262367
aF0.5885735812675049
aF0.5585397659081223
aF0.7353593437405302
aF0.5372502420172153
aF0.12865303644035542
aF0.09744820073904337
atp1410
tp1411
a(g6
(S'\x00\t\x02\x00\x00\x00'
p1412
tp1413
Rp1414
g20
(lp1415
F0.6482064118443133
aF0.4261601333442169
aF0.13890636548327562
aF0.8308224542907188
aF0.5761330113489537
aF0.40843444534305484
aF0.22132701442657587
aF0.27120042219062646
aF0.12088533574895532
aF0.6841720273675563
aF0.7315895626320617
aF0.183131298440795
aF0.3683876506557281
aF0.8865478766559403
aF0.5502948565987263
aF0.1477190346369055
aF0.43193416587127187
aF0.6501157492943307
aF0.053110670873855126
aF0.8938648318787675
aF0.24564802639255812
aF0.8556929242376828
aF0.6144511744308373
atp1416
a(g6
(S'\x00\t\x06\x00\x00\x00'
p1417
tp1418
Rp1419
g10
((lp1420
g12
ag13
a(lp1421
F0.011011305245399616
aF0.7974818233114552
aF0.5955092619274005
aF0.5918170571976532
aF0.4807133351098377
aF0.7782140488608854
aF0.8303113759778608
aF0.08906559850966278
aF0.3841880023636649
aF0.23692051278289805
aF0.9517604233509133
aF0.4995086084539264
aF0.10625397057608532
aF0.9957448882632629
aF0.823726225899559
aF0.04782592714614253
aF0.9267056223704585
aF0.23022986119992472
aF0.9477638716528389
aF0.5439036338922016
aF0.7598591935194449
aF0.21628650721980802
aF0.6647504348549493
atp1422
tp1423
a(g6
(S'\x00\t\x07\x00\x00\x00'
p1424
tp1425
Rp1426
g20
(lp1427
F0.42041121359703726
aF0.13607401952619036
aF0.6615243527909246
aF0.08929232598181924
aF0.7625676517755609
aF0.19818050743513294
aF0.5827853294060785
aF0.18841670868415605
aF0.048472102324799815
aF0.33429053312633916
aF0.22267148185062413
aF0.5002646888099912
aF0.6149012935778899
aF0.2707743209198573
aF0.8650531739415758
aF0.7810216855432
aF0.6983971384415826
aF0.7723792789754891
aF0.31772694688084335
aF0.18830701554768214
aF0.372372009877982
aF0.37389936885231456
aF0.35260759563633637
atp1428
a(g6
(S'\x00\t\x0b\x00\x00\x00'
p1429
tp1430
Rp1431
g10
((lp1432
g12
ag13
a(lp1433
F0.9703292215643912
aF0.9911151608381734
aF0.8681212912789176
aF0.6424025458809391
aF0.47662115095224444
aF0.10156782357803595
aF0.5535942298298631
aF0.9563442165939732
aF0.9662121317434897
aF0.3972196695052447
aF0.3956387818212358
aF0.9701188306431537
aF0.36979691354510336
aF0.1655151811414205
aF0.5428812330483183
aF0.22700812375868507
aF0.29245224669250025
aF0.038893445984126696
aF0.5966388174729265
aF0.6556128587665417
aF0.5144209534997409
aF0.7636832129628688
aF0.7765318947367241
atp1434
tp1435
a(g6
(S'\x00\t\x0c\x00\x00\x00'
p1436
tp1437
Rp1438
g20
(lp1439
F0.46591225750750676
aF0.8659039933897499
aF0.5300024252075771
aF0.9400730856616147
aF0.6521150415609482
aF0.9363931616752336
aF0.1578150253366749
aF0.00547685254058905
aF0.07106364660073738
aF0.8872311360491762
aF0.3444202651117687
aF0.3490249082340007
aF0.637301144329599
aF0.0740934256728929
aF0.16138008102019252
aF0.1343979728807101
aF0.4814674210831752
aF0.4071160689537964
aF0.7936884242420765
aF0.7641474374798877
aF0.05937189386942088
aF0.7946203292835766
aF0.8076900782544344
atp1440
a(g6
(S'\x00\t\x10\x00\x00\x00'
p1441
tp1442
Rp1443
g10
((lp1444
g12
ag13
a(lp1445
F0.36694445949552057
aF0.6371189114471691
aF0.03653668904441232
aF0.7627057264592548
aF0.08498331148506533
aF0.033763989978151554
aF0.9426277243076608
aF0.9134862066141071
aF0.8264850595654945
aF0.09743520958706198
aF0.8621277204472164
aF0.0008009389507717124
aF0.6146367805832198
aF0.4201794828907338
aF0.9212281279075318
aF0.7892398308864003
aF0.49517016771518996
aF0.25673638190909787
aF0.3935635634381006
aF0.31130869349068424
aF0.047216457545091295
aF0.14060361018489387
aF0.6346852721333156
atp1446
tp1447
a(g6
(S'\x00\t\x11\x00\x00\x00'
p1448
tp1449
Rp1450
g20
(lp1451
F0.7959273436640556
aF0.7256772419789391
aF0.9963528030268827
aF0.615914661130902
aF0.1758238895537747
aF0.7976677212756461
aF0.8318149485796964
aF0.9509780152386146
aF0.3364849309215272
aF0.029222495058415343
aF0.18984241472201235
aF0.8730592492063176
aF0.3877783212066913
aF0.3997253785384669
aF0.6414601518765171
aF0.005280701992845471
aF0.8938108292394664
aF0.6746046332354274
aF0.7103901632289963
aF0.3227993011545712
aF0.7674059843835791
aF0.865299476504325
aF0.491946865586513
atp1452
a(g6
(S'\x00\t\x15\x00\x00\x00'
p1453
tp1454
Rp1455
g10
((lp1456
g12
ag13
a(lp1457
F0.6631905545476049
aF0.10166653871776388
aF0.20984065311696853
aF0.055909379721058916
aF0.9108866648735834
aF0.15086993113453984
aF0.9856745980376299
aF0.40530200601493505
aF0.7145718584974297
aF0.36059735475589927
aF0.8145293205670847
aF0.7740057379046316
aF0.2597769957679621
aF0.4997029167142153
aF0.622686780042337
aF0.750534972086641
aF0.043991820192109676
aF0.2721626467245237
aF0.18753793000586538
aF0.41240188846424575
aF0.6250101132084198
aF0.49991841356063227
aF0.8156104456597068
atp1458
tp1459
a(g6
(S'\x00\t\x16\x00\x00\x00'
p1460
tp1461
Rp1462
g20
(lp1463
F0.2527973172191075
aF0.1412447380081583
aF0.5288320841323801
aF0.5612201659315967
aF0.9727281753770792
aF0.2137111979121612
aF0.497237119890403
aF0.08471357987136574
aF0.8484223566753488
aF0.7210419028193091
aF0.5804676978117311
aF0.3963455414888559
aF0.6264262639389981
aF0.6704523210784853
aF0.7157752939485023
aF0.217463780404475
aF0.9459411675786497
aF0.16283273564374123
aF0.4265503881361017
aF0.5977549505745154
aF0.8185041851564602
aF0.6143046506656479
aF0.7369084379336479
atp1464
a(g6
(S'\x00\t\x1a\x00\x00\x00'
p1465
tp1466
Rp1467
g10
((lp1468
g12
ag13
a(lp1469
F0.5022895537805041
aF0.6927664418376968
aF0.7540231388654862
aF0.6380133139020573
aF0.436152889194346
aF0.9991636402612096
aF0.680795382039679
aF0.14212326480280346
aF0.5376234947294547
aF0.3180999526200977
aF0.04247986433616824
aF0.603849993529416
aF0.9742331127657637
aF0.13370228104138948
aF0.7710987312769427
aF0.17442298688135038
aF0.5530556602190998
aF0.6086684734162614
aF0.720588463052532
aF0.22020124116763207
aF0.19503238360478659
aF0.3637439273988773
aF0.006013656781888699
atp1470
tp1471
a(g6
(S'\x00\t\x1b\x00\x00\x00'
p1472
tp1473
Rp1474
g20
(lp1475
F0.19147713539539224
aF0.10195261977364489
aF0.028338944648842235
aF0.14915655395342342
aF0.0421335019855309
aF0.036848589282465705
aF0.7610825089659847
aF0.22954845609102115
aF0.4871193745089486
aF0.45443543471614367
aF0.11299600253073605
aF0.16498618488229677
aF0.8224159209935473
aF0.8520967000045467
aF0.9693256794121586
aF0.8585598302685984
aF0.01567718118606254
aF0.2022939551242654
aF0.9677308409226103
aF0.25159004527890694
aF0.6362448359692965
aF0.9606393652850709
aF0.48663944795159697
atp1476
a(g6
(S'\x00\t\x1f\x00\x00\x00'
p1477
tp1478
Rp1479
g10
((lp1480
g12
ag13
a(lp1481
F0.9290684693792963
aF0.01922231170373745
aF0.48984015476648535
aF0.24184080239764927
aF0.4256623452564491
aF0.7353166040954464
aF0.673293476876306
aF0.14727061035324074
aF0.7731518988945005
aF0.973753290528061
aF0.8330402516275626
aF0.9788597505484328
aF0.25189294742401025
aF0.2615451133037502
aF0.9353655530289903
aF0.5888284325347846
aF0.2447596284435064
aF0.31679370501910853
aF0.49786771957366316
aF0.4149962499938197
aF0.7953568698113535
aF0.5715334815332921
aF0.07688073507483772
atp1482
tp1483
a(g6
(S'\x00\t \x00\x00\x00'
p1484
tp1485
Rp1486
g20
(lp1487
F0.6537330477316996
aF0.1030660377781294
aF0.2558990045040406
aF0.8475624834919648
aF0.42594343973861726
aF0.7396254538165646
aF0.13729057260175204
aF0.7842167142029796
aF0.035747338895233516
aF0.2958278864699643
aF0.7884304786674735
aF0.21794313115487107
aF0.01968502378659054
aF0.0565696709056428
aF0.9166693941008097
aF0.9903424061678764
aF0.47209971869073497
aF0.10296703466666868
aF0.5955052415891013
aF0.1662005534798061
aF0.9912372498832992
aF0.18825229720150405
aF0.653379463839757
atp1488
asg167
(dp1489
I1
(lp1490
(lp1491
S'121,135,10,148,151'
p1492
aa(lp1493
S'100,149,157,149,157'
p1494
aasI2
(lp1495
(lp1496
S'95,126,129,126,129'
p1497
aS'69,89,228,112,177'
p1498
aS'51,38,203,140,140'
p1499
aS'73,35,207,35,207'
p1500
aa(lp1501
S'87,132,68,132,68'
p1502
aS'115,157,123,157,123'
p1503
aS'68,167,137,167,137'
p1504
aasI3
(lp1505
(lp1506
S'123,201,216,150,166'
p1507
aa(lp1508
S'72,119,124,119,124'
p1509
aS'128,117,122,117,122'
p1510
aasI4
(lp1511
(lp1512
S'73,23,216,146,120'
p1513
aa(lp1514
S'87,109,102,109,102'
p1515
aasI5
(lp1516
(lp1517
S'73,23,216,186,171'
p1518
aS'115,126,180,193,34'
p1519
aS'95,95,198,135,132'
p1520
aS'98,73,142,130,70'
p1521
aS'87,109,102,109,102'
p1522
aS'102,106,106,106,106'
p1523
aS'107,169,10,169,10'
p1524
aa(lp1525
S'65,129,124,129,124'
p1526
aS'114,115,44,115,44'
p1527
aasI6
(lp1528
(lp1529
S'73,154,85,154,85'
p1530
aS'121,85,145,113,94'
p1531
aS'118,245,80,149,63'
p1532
aa(lp1533
S'82,119,55,119,55'
p1534
aS'116,103,57,103,57'
p1535
aS'76,133,56,133,56'
p1536
aS'106,119,29,119,29'
p1537
aasI7
(lp1538
(lp1539
S'62,136,91,124,46'
p1540
aS'66,74,117,106,65'
p1541
aS'95,87,120,150,57'
p1542
aS'121,94,113,160,38'
p1543
aS'3,64,376,74,273'
p1544
aS'6,59,232,59,232'
p1545
aa(lp1546
S'61,244,65,143,53'
p1547
aS'82,115,27,115,27'
p1548
aS'114,111,22,111,22'
p1549
aS'94,97,45,97,45'
p1550
aS'102,97,43,97,43'
p1551
aS'117,114,16,114,16'
p1552
aS'119,112,12,112,12'
p1553
aS'95,150,57,150,57'
p1554
aS'111,124,14,124,14'
p1555
aS'86,159,21,159,21'
p1556
aS'96,156,21,156,21'
p1557
aS'105,159,23,159,23'
p1558
aS'113,160,26,160,26'
p1559
aasI8
(lp1560
(lp1561
S'73,13,181,114,79'
p1562
aS'66,63,134,76,89'
p1563
aS'74,34,121,91,75'
p1564
aS'118,207,40,122,42'
p1565
aa(lp1566
S'73,114,79,114,79'
p1567
aS'65,103,70,103,70'
p1568
aS'102,74,62,74,62'
p1569
aS'76,109,54,109,54'
p1570
aS'78,106,58,106,58'
p1571
aS'101,102,39,102,39'
p1572
aS'122,106,43,106,43'
p1573
aS'128,110,41,110,41'
p1574
aasI9
(lp1575
(lp1576
S'139,121,53,218,91'
p1577
aS'140,131,49,280,122'
p1578
aS'142,137,50,264,129'
p1579
aS'143,132,60,270,141'
p1580
aS'145,167,60,257,136'
p1581
aS'170,183,29,254,146'
p1582
aS'137,188,31,249,141'
p1583
aS'136,206,23,254,126'
p1584
aS'162,148,53,247,134'
p1585
aS'130,175,48,243,123'
p1586
aS'133,185,48,290,133'
p1587
aS'131,194,51,255,133'
p1588
aS'163,175,59,270,152'
p1589
aS'134,190,56,250,129'
p1590
aS'141,132,100,246,108'
p1591
aS'161,161,92,258,120'
p1592
aS'138,178,64,276,138'
p1593
aS'132,217,61,260,130'
p1594
aa(lp1595
S'147,231,97,231,97'
p1596
aS'156,279,143,279,143'
p1597
aS'167,267,152,267,152'
p1598
aS'176,265,156,265,156'
p1599
aS'150,282,132,282,132'
p1600
aS'171,299,126,299,126'
p1601
aasI10
(lp1602
(lp1603
S'92,207,39,108,43'
p1604
aS'61,253,69,116,14'
p1605
aS'118,233,44,62,10'
p1606
aS'59,207,48,76,17'
p1607
aS'83,230,68,72,12'
p1608
aS'70,210,62,51,30'
p1609
aS'60,213,69,52,7'
p1610
aS'68,181,83,52,7'
p1611
aS'73,14,150,70,9'
p1612
aS'101,126,30,126,30'
p1613
aS'108,125,24,125,24'
p1614
aS'106,107,29,107,29'
p1615
aS'114,110,28,110,28'
p1616
aS'119,113,25,113,25'
p1617
aS'117,113,17,113,17'
p1618
aa(lp1619
S'106,108,29,107,29'
p1620
aS'117,113,17,113,17'
p1621
aS'119,113,25,113,25'
p1622
aS'82,105,33,105,33'
p1623
aS'94,105,35,105,35'
p1624
aS'114,110,28,110,28'
p1625
aS'125,107,35,107,35'
p1626
aS'97,104,25,104,25'
p1627
aS'116,96,33,96,33'
p1628
aS'88,131,21,131,21'
p1629
aS'111,133,20,133,20'
p1630
aS'128,139,24,139,24'
p1631
aasI11
(lp1632
(lp1633
S'4,79,84,73,254'
p1634
aS'25,52,87,57,247'
p1635
aS'43,108,89,93,270'
p1636
aS'36,82,99,78,313'
p1637
aS'38,74,106,75,321'
p1638
aS'21,59,102,73,303'
p1639
aS'37,87,115,81,266'
p1640
aS'32,61,125,73,315'
p1641
aS'41,84,129,62,347'
p1642
aS'44,60,119,84,335'
p1643
aS'23,32,129,71,345'
p1644
aS'24,25,136,87,345'
p1645
aS'34,71,138,75,311'
p1646
aS'19,64,137,75,332'
p1647
aS'1,44,141,70,339'
p1648
aS'35,45,139,90,340'
p1649
aS'40,66,151,77,332'
p1650
aS'27,78,157,85,385'
p1651
aS'48,88,182,84,333'
p1652
aa(lp1653
S'6,49,250,49,250'
p1654
aS'52,63,243,63,243'
p1655
aS'13,78,242,78,242'
p1656
aS'31,82,268,82,268'
p1657
aS'10,50,291,50,291'
p1658
aS'5,84,278,84,278'
p1659
aS'43,93,270,93,270'
p1660
aS'49,92,271,92,271'
p1661
aS'14,75,344,75,344'
p1662
aasI12
(lp1663
(lp1664
S'73,10,173,96,23'
p1665
aS'71,48,139,88,33'
p1666
aS'74,52,102,82,16'
p1667
aS'37,100,134,100,134'
p1668
aS'121,79,129,81,-2'
p1669
aS'66,61,116,88,27'
p1670
aS'62,106,91,96,21'
p1671
aS'123,120,91,81,24'
p1672
aS'110,121,82,77,31'
p1673
aS'95,73,94,88,21'
p1674
aS'115,91,107,91,107'
p1675
aS'124,86,108,86,108'
p1676
aS'98,76,90,76,90'
p1677
aa(lp1678
S'117,86,29,86,29'
p1679
aS'119,90,34,90,34'
p1680
aS'82,80,44,80,44'
p1681
aS'106,84,42,84,42'
p1682
aS'114,86,41,86,41'
p1683
aS'97,78,40,78,40'
p1684
aS'94,81,48,81,48'
p1685
aS'116,75,45,75,45'
p1686
aasI13
(lp1687
(lp1688
S'73,10,180,92,24'
p1689
aS'121,72,141,84,14'
p1690
aS'71,47,135,47,11'
p1691
aS'115,86,119,60,18'
p1692
aS'124,70,113,62,14'
p1693
aS'66,59,111,56,6'
p1694
aS'74,48,106,70,2'
p1695
aS'104,34,98,78,16'
p1696
aS'62,101,80,87,24'
p1697
aS'67,50,91,80,28'
p1698
aS'69,50,86,80,27'
p1699
aS'87,54,76,79,24'
p1700
aS'109,53,76,78,26'
p1701
aS'81,49,84,78,26'
p1702
aS'4,68,88,79,17'
p1703
aS'95,71,83,87,20'
p1704
aS'123,101,80,101,80'
p1705
aS'120,69,86,69,86'
p1706
aS'98,76,82,76,82'
p1707
aa(lp1708
S'128,103,26,103,26'
p1709
aS'88,96,28,96,28'
p1710
aS'111,97,29,97,29'
p1711
aS'101,90,36,90,36'
p1712
aS'108,91,36,91,36'
p1713
aS'117,77,32,77,32'
p1714
aS'97,74,40,74,40'
p1715
aS'119,77,40,77,40'
p1716
aS'122,84,44,84,44'
p1717
aassg652
(lp1718
(g654
(g658
S'Y\x95\xb3X\xecG\xa4?'
p1719
tp1720
Rp1721
g654
(g658
S'M\x98GX\xa4\xd9\xbc?'
p1722
tp1723
Rp1724
tp1725
a(g654
(g658
S'+nb\x88u7\xbe?'
p1726
tp1727
Rp1728
g654
(g658
S'\xb9\xd3\x94\x84\xa7e\x9e?'
p1729
tp1730
Rp1731
tp1732
a(g654
(g658
S'\x1f\x10\x84A\xe0\xa6\xb6?'
p1733
tp1734
Rp1735
g654
(g658
S'@\xd2\xffT\xb3eC?'
p1736
tp1737
Rp1738
tp1739
a(g654
(g658
S'^\x1fX\xa8\xccW\xbe?'
p1740
tp1741
Rp1742
g654
(g658
S'\x8f\x92\x18\xe7\x8e\x85\xa9\xbf'
p1743
tp1744
Rp1745
tp1746
a(g654
(g658
S'\x1f\x10\x84A\xe0\xa6\xb6?'
p1747
tp1748
Rp1749
g654
(g658
S'@\xd2\xffT\xb3eC?'
p1750
tp1751
Rp1752
tp1753
a(g654
(g658
S'P\xa7\xeah5\xf5\xa8?'
p1754
tp1755
Rp1756
g654
(g658
S'\xb3f\x9b\x88\xb9\xe7\x97\xbf'
p1757
tp1758
Rp1759
tp1760
a(g654
(g658
S'5l\n\xd01\xc0\x9c\xbf'
p1761
tp1762
Rp1763
g654
(g658
S'\x94\\F\xcc\x9a\x17\xab\xbf'
p1764
tp1765
Rp1766
tp1767
a(g654
(g658
S'\xf0\\NnY\xb7\x9d\xbf'
p1768
tp1769
Rp1770
g654
(g658
S'\x82*?\xa0\x12\xf4\xb5\xbf'
p1771
tp1772
Rp1773
tp1774
a(g654
(g658
S'\x03~\xee\xd3\x97\xfb\xaa\xbf'
p1775
tp1776
Rp1777
g654
(g658
S'\xa8\xa1+\xf8\xbf|\xc3\xbf'
p1778
tp1779
Rp1780
tp1781
a(g654
(g658
S'\xdf\xa0 \x99\xcb\x8d\xc1\xbf'
p1782
tp1783
Rp1784
g654
(g658
S'J",m\xa1\xb8\xb4\xbf'
p1785
tp1786
Rp1787
tp1788
a(g654
(g658
S'R\xf9\x07\x13\xa5\x92\xc1\xbf'
p1789
tp1790
Rp1791
g654
(g658
S'\x19\td7`\xfd\xb8\xbf'
p1792
tp1793
Rp1794
tp1795
a(g654
(g658
S'\xf9\xcf\x86\xf4n\xe1\xbb\xbf'
p1796
tp1797
Rp1798
g654
(g658
S'\xeb\x86\xf2\x1f\x887\xc2\xbf'
p1799
tp1800
Rp1801
tp1802
a(g654
(g658
S'8\xeb\x00-\xb8/\xc0\xbf'
p1803
tp1804
Rp1805
g654
(g658
S'|\xa9d\x8e\x8e\xc6\xc5\xbf'
p1806
tp1807
Rp1808
tp1809
a(g654
(g658
S'\x0erW~\xb3c\xba\xbf'
p1810
tp1811
Rp1812
g654
(g658
S'\xe1\x0c\xf2\x80\xab&\xcb\xbf'
p1813
tp1814
Rp1815
tp1816
asg752
(lp1817
g654
(g658
S'\xe2\xe9\xd7\xfb\xb3C\xed?'
p1818
tp1819
Rp1820
ag654
(g658
S'\x93G\xe0\xae\x11L\xed?'
p1821
tp1822
Rp1823
ag654
(g658
S'\x86\x94y\xafC\x1b\xed?'
p1824
tp1825
Rp1826
ag654
(g658
S'n+\xb2\xa4\xbf\x89\xed?'
p1827
tp1828
Rp1829
ag654
(g658
S'\xab\xb0\xa7\xb9\x95\xdd\xed?'
p1830
tp1831
Rp1832
ag654
(g658
S'n+\xb2\xa4\xbf\x89\xed?'
p1833
tp1834
Rp1835
ag654
(g658
S'\x95\xab~\xd8$\x8c\xed?'
p1836
tp1837
Rp1838
ag654
(g658
S'\xab\xb3\xa1\xc5}\r\xee?'
p1839
tp1840
Rp1841
ag654
(g658
S'[\xb9\xfcu\x83h\xee?'
p1842
tp1843
Rp1844
ag654
(g658
S'\xbd\xc1\xb8\xca\xa6\xee\xee?'
p1845
tp1846
Rp1847
ag654
(g658
S'\x95D\xe6\xa2)\x1c\xef?'
p1848
tp1849
Rp1850
ag654
(g658
S'm\xc7\x13{\xacI\xef?'
p1851
tp1852
Rp1853
ag654
(g658
S'\x95D\xe6\xa2)\x1c\xef?'
p1854
tp1855
Rp1856
ag654
(g658
S'3<*N\x06\x96\xee?'
p1857
tp1858
Rp1859
ag654
(g658
S'\x15o\xbb"T\xf1\xee?'
p1860
tp1861
Rp1862
asg796
(dp1863
g798
g799
sg800
g801
sg806
g807
sg808
(lp1864
(lp1865
asg811
g6
(S'\x00\x00\x00\x00\x00\x00'
p1866
tp1867
Rp1868
sg815
g816
ssg824
(lp1869
g826
a(lp1870
g802
ag866
ag833
ag828
ag839
aa(lp1871
g802
ag832
ag860
ag836
ag829
aa(lp1872
g832
ag860
ag836
ag829
ag857
aa(lp1873
g832
ag836
ag860
ag829
ag866
aa(lp1874
g832
ag860
ag836
ag829
ag857
aa(lp1875
g832
ag836
ag829
ag857
ag839
aa(lp1876
g832
ag836
ag839
ag829
ag857
aa(lp1877
g832
ag836
ag829
ag839
ag857
aa(lp1878
g832
ag836
ag829
ag839
ag833
aa(lp1879
g836
ag832
ag829
ag839
ag833
aa(lp1880
g832
ag829
ag839
ag836
ag833
aa(lp1881
g832
ag836
ag829
ag833
ag839
aa(lp1882
g836
ag832
ag829
ag839
ag833
aa(lp1883
g836
ag832
ag829
ag839
ag833
aasg847
(g654
(g658
S'\xb8p\x8a\xb8f\xa0\xb2?'
p1884
tp1885
Rp1886
g654
(g658
S'\xc0\x8fE\x1b \xe8\xbc?'
p1887
tp1888
Rp1889
tp1890
sg855
g856
ssI5
(dp1891
g2
(lp1892
I0
aI0
aI0
aI0
aI0
aI0
aI0
aI1
asg4
(lp1893
(g6
(S'\x00\x08\x1a\x00\x00\x00'
p1894
tp1895
Rp1896
g10
((lp1897
g12
ag13
a(lp1898
F0.9053437457548716
aF0.894815272211393
aF0.8114522709273608
aF0.6401480007851827
aF0.2260181364684436
aF0.8681777008380864
aF0.555602235838836
aF0.6760362828672649
aF0.46927078177215376
aF0.1839795494186025
aF0.019169517983868345
aF0.9988526989229485
aF0.5712085104192476
aF0.16215342404909738
aF0.0023466136728838016
aF0.8086576597633626
aF0.8023517606645544
aF0.2498950231277709
aF0.0885664224036874
aF0.9815361718800794
aF0.40644681608524325
aF0.3383093224774243
aF0.7863316785442173
atp1899
tp1900
a(g6
(S'\x00\x08\x1b\x00\x00\x00'
p1901
tp1902
Rp1903
g20
(lp1904
F0.8660417480093826
aF0.807910933368272
aF0.6004767155677416
aF0.9979840556741195
aF0.14812786403282963
aF0.21792122998109165
aF0.4499374982144527
aF0.42065073689783095
aF0.1518395035115282
aF0.15889729066245495
aF0.3110253092392927
aF0.03974537631911501
aF0.9039863292321957
aF0.43856265876504585
aF0.0964657038154203
aF0.21004427310090001
aF0.7967438305187882
aF0.5012709679080258
aF0.8106930148211079
aF0.8115231926392449
aF0.5455473742245377
aF0.07068844055032919
aF0.043832912680341285
atp1905
a(g6
(S'\x00\x08\x1f\x00\x00\x00'
p1906
tp1907
Rp1908
g10
((lp1909
g12
ag13
a(lp1910
F0.42868106125839134
aF0.2992409782052351
aF0.7042212630755614
aF0.8724279983887957
aF0.872047923799073
aF0.7317456494117847
aF0.10676393375970894
aF0.8837469251049969
aF0.7358439973543072
aF0.5678297968241871
aF0.19336024238771876
aF0.20253260527139838
aF0.6453987929105736
aF0.4861355332746674
aF0.36817350987018405
aF0.49634821344815017
aF0.1988033594307551
aF0.7245500884808931
aF0.6224462954497147
aF0.023106723254068262
aF0.6977998374660507
aF0.6113927096798859
aF0.7092977252387704
atp1911
tp1912
a(g6
(S'\x00\x08 \x00\x00\x00'
p1913
tp1914
Rp1915
g20
(lp1916
F0.3016396879239558
aF0.19635459616863327
aF0.9891247518965336
aF0.9578543674523704
aF0.03424092709908355
aF0.3350437376469051
aF0.4326709205833338
aF0.695005359873062
aF0.06874678860284278
aF0.3315435134408059
aF0.0540353533530572
aF0.22919076716474207
aF0.43795674209517266
aF0.9661291158953108
aF0.8469872453808915
aF0.7878823122881512
aF0.11826265990444962
aF0.18513256335945738
aF0.8094477240119745
aF0.19910663215374036
aF0.11133786244979949
aF0.7262981499315182
aF0.2151183973332128
atp1917
a(g6
(S'\x00\x08$\x00\x00\x00'
p1918
tp1919
Rp1920
g10
((lp1921
g12
ag13
a(lp1922
F0.749538344968166
aF0.9242001827476549
aF0.4627416769516314
aF0.06511692552025539
aF0.449682742304355
aF0.8485543175525213
aF0.4396617927981129
aF0.09833175853346898
aF0.49659178854731445
aF0.23046039475147273
aF0.8508938687997152
aF0.09309224537462046
aF0.14711578161795946
aF0.11576620492893996
aF0.11733608449990718
aF0.1670970403050055
aF0.8186158063581358
aF0.6124794398562604
aF0.7246986621325742
aF0.6676993205674863
aF0.6132012200482204
aF0.730291978444119
aF0.061835349384193106
atp1923
tp1924
a(g6
(S'\x00\x08%\x00\x00\x00'
p1925
tp1926
Rp1927
g20
(lp1928
F0.20519766782779536
aF0.9411564860037752
aF0.4404206472134877
aF0.9204251132899809
aF0.9101390252108325
aF0.036295139664163756
aF0.07406837879838435
aF0.21566565579569263
aF0.7504491154807575
aF0.354593373389527
aF0.39191113846580095
aF0.355834143328735
aF0.45236291576924637
aF0.7195745598372366
aF0.5434134684716179
aF0.3327987226635113
aF0.036700226469012054
aF0.6282199468005937
aF0.09349961233618032
aF0.03545268266100732
aF0.7072149608508697
aF0.5177459616555313
aF0.004516780223169814
atp1929
a(g6
(S'\x00\x08)\x00\x00\x00'
p1930
tp1931
Rp1932
g10
((lp1933
g12
ag13
a(lp1934
F0.47869279285713695
aF0.024187216581504134
aF0.9953869871879295
aF0.879900544058746
aF0.9145100538206129
aF0.608723458575258
aF0.8599828792362152
aF0.3455690573313437
aF0.642483091216735
aF0.41448773589288024
aF0.4808796233073015
aF0.913015266703163
aF0.7186162929842014
aF0.8768275568282495
aF0.22563911041127693
aF0.6952010792264794
aF0.27823816218760034
aF0.08764839738390928
aF0.11348915422108152
aF0.8769486508555245
aF0.28647221306699644
aF0.6152102651297074
aF0.8632114822473043
atp1935
tp1936
a(g6
(S'\x00\x08*\x00\x00\x00'
p1937
tp1938
Rp1939
g20
(lp1940
F0.9210519627604037
aF0.617439825751266
aF0.9933768508517895
aF0.7879753734667734
aF0.40002284623409456
aF0.4596845237046814
aF0.7388263706894007
aF0.054058018393998264
aF0.26090331626862706
aF0.6779743512119033
aF0.34421654271077395
aF0.941931908627915
aF0.7844533963714823
aF0.20920704738014406
aF0.8194197120727436
aF0.9276527356464684
aF0.19058988466092253
aF0.24243097527643043
aF0.03763558528710487
aF0.6084049249134756
aF0.7601054068637384
aF0.700337862956158
aF0.7293039229957348
atp1941
a(g6
(S'\x00\x08.\x00\x00\x00'
p1942
tp1943
Rp1944
g10
((lp1945
g12
ag13
a(lp1946
F0.38345930488253743
aF0.4788657144940114
aF0.24463721343416944
aF0.6148378952582019
aF0.20126850895951387
aF0.8026227481381708
aF0.9539971275872202
aF0.056836184975862736
aF0.4758995796540375
aF0.7778448744367336
aF0.25666128181791514
aF0.4466994267641812
aF0.3243395322199155
aF0.7707753155591275
aF0.4402672719627547
aF0.6713167040109229
aF0.3395878955982844
aF0.47228658957606384
aF0.7237081979822924
aF0.6965118759940225
aF0.9371375032267727
aF0.5947422634118492
aF0.34087050253386264
atp1947
tp1948
a(g6
(S'\x00\x08/\x00\x00\x00'
p1949
tp1950
Rp1951
g20
(lp1952
F0.7593910178563449
aF0.368870622157364
aF0.7896086368767659
aF0.00936699451184897
aF0.33287265973441804
aF0.8078139268376121
aF0.16709035552356366
aF0.22509736575852257
aF0.5146325443406237
aF0.8441534039821659
aF0.44229790040550176
aF0.7907434870972481
aF0.13185409409637272
aF0.04119232869097311
aF0.4039460150597082
aF0.28834416109047734
aF0.3673344759522492
aF0.6736685727450673
aF0.6442497478369997
aF0.9098004251053551
aF0.747126729625381
aF0.6554900463770323
aF0.23733560269075304
atp1953
a(g6
(S'\x00\x083\x00\x00\x00'
p1954
tp1955
Rp1956
g10
((lp1957
g12
ag13
a(lp1958
F0.7949448170522085
aF0.6467186968910225
aF0.1342772949364075
aF0.690424791054714
aF0.2906338655072589
aF0.06759255079098958
aF0.08875496787214143
aF0.5468812910499505
aF0.560044283147777
aF0.2721602142427746
aF0.7696241463192479
aF0.457677978460559
aF0.2963491758763305
aF0.12323864818744501
aF0.7171865503925977
aF0.6070102445209652
aF0.7160071047947056
aF0.27958691223320775
aF0.08092360965335332
aF0.11422375277668251
aF0.4532595955866009
aF0.4912278638534663
aF0.15730655488628786
atp1959
tp1960
a(g6
(S'\x00\x084\x00\x00\x00'
p1961
tp1962
Rp1963
g20
(lp1964
F0.02450943776200043
aF0.0018061678905608725
aF0.4135568091179569
aF0.5631222085325797
aF0.16170085470215467
aF0.3535844227234214
aF0.5546018163103111
aF0.47343528170748306
aF0.83443816726577
aF0.0368327916168798
aF0.0675124119032463
aF0.5640229052548349
aF0.6285763585587711
aF0.38254170117397335
aF0.07672412540972962
aF0.6409498840728532
aF0.9182250445300288
aF0.13364868468384994
aF0.9763359391585781
aF0.16979049503510624
aF0.275330434167685
aF0.240403971493655
aF0.3658938608176977
atp1965
a(g6
(S'\x00\x088\x00\x00\x00'
p1966
tp1967
Rp1968
g10
((lp1969
g12
ag13
a(lp1970
F0.651890504550238
aF0.777453059417653
aF0.020075559273815657
aF0.029562863771322556
aF0.6386840140719089
aF0.490050289621786
aF0.9796813461152191
aF0.8150640429861686
aF0.7643661042678231
aF0.2280299822885692
aF0.5949710339116709
aF0.7529407745651525
aF0.5079649710661965
aF0.8486060709644738
aF0.9704212777399054
aF0.5441979100361436
aF0.518044104632377
aF0.5750417781761765
aF0.7751055675384305
aF0.6132905080792481
aF0.2560777874947304
aF0.34790965214687053
aF0.4750852053800183
atp1971
tp1972
a(g6
(S'\x00\x089\x00\x00\x00'
p1973
tp1974
Rp1975
g20
(lp1976
F0.8849678594915448
aF0.6760457362356133
aF0.6600873793187164
aF0.20433906864629658
aF0.7090393896266959
aF0.21420764824917138
aF0.6829507313514814
aF0.9532503133796265
aF0.8480852425319337
aF0.11262844450659959
aF0.8561751701645312
aF0.09647938448877635
aF0.9926563304233315
aF0.1415470474171865
aF0.6814206665950228
aF0.15892633143140944
aF0.09283655427681259
aF0.8573181591602104
aF0.5293784983164479
aF0.2555226703220378
aF0.8972466293154455
aF0.2891877340655281
aF0.6654528693268882
atp1977
a(g6
(S'\x00\t\x01\x00\x00\x00'
p1978
tp1979
Rp1980
g10
((lp1981
g12
ag13
a(lp1982
F0.20715614941227822
aF0.11722994539917331
aF0.06398460565150221
aF0.38973607431120005
aF0.7205283354904537
aF0.333870275848702
aF0.5436117887779736
aF0.38566004165870804
aF0.6697882872879684
aF0.04921858907108867
aF0.4992207949290678
aF0.9335375548965432
aF0.7307486813709277
aF0.49414552488284447
aF0.7421303794496767
aF0.5176619646918351
aF0.6216535324749848
aF0.5288841013558164
aF0.09783465285902992
aF0.5549156438029422
aF0.8031406609578567
aF0.6593149163943373
aF0.6988188691422295
atp1983
tp1984
a(g6
(S'\x00\t\x02\x00\x00\x00'
p1985
tp1986
Rp1987
g20
(lp1988
F0.37090566207673525
aF0.7798264293856878
aF0.4075095308352189
aF0.5748725409877912
aF0.03923842706543701
aF0.7778590236547857
aF0.3952960959858395
aF0.25553410309987934
aF0.05020211640431971
aF0.5001666977137134
aF0.5240594217891679
aF0.7245292523023847
aF0.5100442884743683
aF0.5395479581266172
aF0.17193970625194355
aF0.8257178870772083
aF0.4861342787005172
aF0.21933889259314143
aF0.3021486317460145
aF0.2394730228851737
aF0.09000444418149744
aF0.39087811544311146
aF0.18025110912996334
atp1989
asg167
(dp1990
I1
(lp1991
(lp1992
S'34,133,207,143,218'
p1993
aS'80,133,209,135,205'
p1994
aS'129,211,190,211,190'
p1995
aS'123,165,182,165,182'
p1996
aS'115,158,176,158,176'
p1997
aS'128,176,192,176,192'
p1998
aS'122,218,215,218,215'
p1999
aS'112,227,180,227,180'
p2000
aS'127,233,222,233,222'
p2001
aS'72,155,191,155,191'
p2002
aS'120,132,210,132,210'
p2003
aa(lp2004
S'59,268,41,201,162'
p2005
aS'121,137,10,177,168'
p2006
aS'118,300,119,242,182'
p2007
aS'130,211,292,292,253'
p2008
aS'128,176,192,176,192'
p2009
aS'115,158,176,158,176'
p2010
aS'80,135,205,135,205'
p2011
aS'120,132,210,132,210'
p2012
aasI2
(lp2013
(lp2014
S'73,225,120,225,120'
p2015
aS'123,224,73,224,73'
p2016
aS'87,234,80,234,80'
p2017
aS'116,236,104,236,104'
p2018
aS'100,205,100,205,100'
p2019
aS'120,227,156,227,156'
p2020
aS'72,229,150,229,150'
p2021
aS'84,226,178,226,178'
p2022
aS'99,228,181,228,181'
p2023
aS'93,243,157,243,157'
p2024
aS'97,246,153,246,153'
p2025
aS'79,245,134,245,134'
p2026
aS'94,236,133,236,133'
p2027
aS'125,250,56,250,56'
p2028
aS'82,256,53,256,53'
p2029
aS'114,270,54,270,54'
p2030
aS'88,278,62,278,62'
p2031
aS'91,288,59,288,59'
p2032
aS'127,290,56,290,56'
p2033
aa(lp2034
S'73,123,206,225,120'
p2035
aS'98,229,92,229,92'
p2036
aS'66,161,153,220,94'
p2037
aS'110,203,207,217,137'
p2038
aS'69,189,317,201,127'
p2039
aS'71,197,312,200,82'
p2040
aS'59,302,372,209,155'
p2041
aS'62,221,221,217,182'
p2042
aS'109,225,294,227,192'
p2043
aS'64,304,182,245,174'
p2044
aS'124,215,227,190,109'
p2045
aS'63,205,246,263,176'
p2046
aS'126,283,271,253,184'
p2047
aS'123,224,73,224,73'
p2048
aasI3
(lp2049
(lp2050
S'40,151,295,151,295'
p2051
aS'20,138,301,138,301'
p2052
aS'1,134,313,134,313'
p2053
aS'23,157,318,157,318'
p2054
aS'55,143,278,143,278'
p2055
aS'50,136,281,136,281'
p2056
aS'46,118,272,118,272'
p2057
aS'12,114,187,114,187'
p2058
aS'30,119,183,119,183'
p2059
aS'47,126,207,126,207'
p2060
aS'33,122,213,122,213'
p2061
aS'9,122,222,122,222'
p2062
aS'39,145,197,145,197'
p2063
aS'45,140,194,140,194'
p2064
aS'11,134,187,134,187'
p2065
aS'31,82,199,82,199'
p2066
aS'49,106,209,106,209'
p2067
aS'0,89,226,89,226'
p2068
aS'2,127,254,127,254'
p2069
aa(lp2070
S'34,179,87,153,244'
p2071
aS'38,192,118,158,206'
p2072
aS'52,86,93,108,182'
p2073
aS'3,10,128,68,187'
p2074
aS'14,31,163,60,208'
p2075
aS'53,108,94,98,176'
p2076
aS'29,146,137,101,164'
p2077
aS'51,89,276,113,232'
p2078
aS'25,202,367,163,275'
p2079
aS'36,197,335,166,280'
p2080
aS'4,191,354,127,288'
p2081
aS'40,151,295,151,295'
p2082
aasI4
(lp2083
(lp2084
S'132,331,149,331,149'
p2085
aS'138,335,141,335,141'
p2086
aS'165,334,142,334,142'
p2087
aS'174,308,128,308,128'
p2088
aS'177,309,131,309,131'
p2089
aS'150,309,96,309,96'
p2090
aS'175,303,96,303,96'
p2091
aS'148,313,108,313,108'
p2092
aS'135,348,164,348,164'
p2093
aS'154,344,168,344,168'
p2094
aS'161,293,143,293,143'
p2095
aS'134,324,180,324,180'
p2096
aS'136,356,179,356,179'
p2097
aS'137,355,195,355,195'
p2098
aS'144,295,177,295,177'
p2099
aa(lp2100
S'158,243,10,334,118'
p2101
aS'139,305,260,319,144'
p2102
aS'133,320,250,324,157'
p2103
aS'143,305,251,329,161'
p2104
aS'130,308,234,326,176'
p2105
aS'145,308,244,303,147'
p2106
aS'171,362,57,328,98'
p2107
aS'162,323,248,323,248'
p2108
aasI5
(lp2109
(lp2110
S'95,191,253,266,313'
p2111
aS'61,339,228,316,300'
p2112
aS'106,279,357,279,357'
p2113
aS'114,283,352,283,352'
p2114
aS'117,281,353,281,353'
p2115
aS'82,274,357,274,357'
p2116
aS'116,270,352,270,352'
p2117
aS'111,297,350,297,350'
p2118
aS'108,287,330,287,330'
p2119
aS'101,286,317,286,317'
p2120
aS'122,289,314,289,314'
p2121
aS'80,266,330,266,330'
p2122
aS'99,253,331,253,331'
p2123
aS'84,260,337,260,337'
p2124
aS'87,259,335,259,335'
p2125
aS'94,266,334,266,334'
p2126
aS'85,248,343,248,343'
p2127
aS'67,248,362,248,362'
p2128
aS'96,305,313,305,313'
p2129
aS'105,309,311,309,311'
p2130
aS'68,272,295,272,295'
p2131
aS'115,268,293,268,293'
p2132
aS'72,264,293,264,293'
p2133
aS'123,257,295,257,295'
p2134
aS'65,253,304,253,304'
p2135
aS'100,234,314,234,314'
p2136
aS'124,232,303,232,303'
p2137
aS'121,286,334,286,334'
p2138
aa(lp2139
S'73,131,282,269,314'
p2140
aS'68,274,235,272,295'
p2141
aS'118,341,163,289,292'
p2142
aS'59,319,162,282,301'
p2143
aS'83,325,228,297,305'
p2144
aS'121,195,251,286,334'
p2145
aS'92,328,242,265,332'
p2146
aS'106,279,357,279,357'
p2147
aS'114,283,352,283,352'
p2148
aS'117,281,353,281,353'
p2149
aS'95,266,313,266,313'
p2150
aS'108,287,330,287,330'
p2151
aS'61,316,300,316,300'
p2152
aasI6
(lp2153
(lp2154
S'26,159,273,169,285'
p2155
aS'55,170,294,173,297'
p2156
aS'28,168,284,168,284'
p2157
aS'47,163,289,163,289'
p2158
aS'54,175,266,175,266'
p2159
aS'50,168,275,168,275'
p2160
aS'29,158,262,158,262'
p2161
aS'27,169,243,169,243'
p2162
aa(lp2163
S'18,10,29,141,261'
p2164
aS'3,14,74,121,240'
p2165
aS'10,54,126,136,238'
p2166
aS'14,25,81,127,234'
p2167
aS'6,99,170,122,213'
p2168
aS'53,105,153,114,179'
p2169
aS'31,81,133,140,230'
p2170
aS'5,74,127,136,211'
p2171
aS'28,168,284,168,284'
p2172
aasI7
(lp2173
(lp2174
S'71,212,296,269,339'
p2175
aS'73,275,353,265,354'
p2176
aS'118,347,196,331,314'
p2177
aS'95,277,350,277,350'
p2178
aS'102,276,371,276,371'
p2179
aS'80,283,358,283,358'
p2180
aS'82,285,361,285,361'
p2181
aS'94,286,357,286,357'
p2182
aS'99,269,354,269,354'
p2183
aS'120,254,355,254,355'
p2184
aS'101,295,330,295,330'
p2185
aS'88,301,349,301,349'
p2186
aS'111,308,353,308,353'
p2187
aS'114,293,366,293,366'
p2188
aS'117,297,361,297,361'
p2189
aS'119,296,364,296,364'
p2190
aS'97,286,368,286,368'
p2191
aS'116,284,369,284,369'
p2192
aS'83,285,321,285,321'
p2193
aS'65,270,314,270,314'
p2194
aS'68,275,299,275,299'
p2195
aS'72,273,299,273,299'
p2196
aS'123,270,304,270,304'
p2197
aS'78,275,290,275,290'
p2198
aS'76,299,311,299,311'
p2199
aS'128,306,317,306,317'
p2200
aS'86,316,305,316,305'
p2201
aS'96,319,308,319,308'
p2202
aS'113,323,309,323,309'
p2203
aS'129,310,303,310,303'
p2204
aa(lp2205
S'95,210,290,277,350'
p2206
aS'73,140,318,275,353'
p2207
aS'61,346,215,291,312'
p2208
aS'59,329,214,296,300'
p2209
aS'70,311,237,282,306'
p2210
aS'60,319,248,289,323'
p2211
aS'83,330,224,285,321'
p2212
aS'68,275,236,275,299'
p2213
aS'118,331,314,331,314'
p2214
aassg652
(lp2215
(g654
(g658
S'\x81\xb6\xb4X\xb8\xea\x93?'
p2216
tp2217
Rp2218
g654
(g658
S'\xc1\x19\xe8J\xd3\xd0\xc2?'
p2219
tp2220
Rp2221
tp2222
a(g654
(g658
S'o<t*Ux\xa1\xbf'
p2223
tp2224
Rp2225
g654
(g658
S'\xb9\xd3\xf0N+\xd4\xbd?'
p2226
tp2227
Rp2228
tp2229
a(g654
(g658
S'\xf0\x84 \x0e\xe6~\xa3\xbf'
p2230
tp2231
Rp2232
g654
(g658
S':\x98\xc9\xc9\xf4~\xb3?'
p2233
tp2234
Rp2235
tp2236
a(g654
(g658
S't\xeb}[\x10 \xb6\xbf'
p2237
tp2238
Rp2239
g654
(g658
S'\x0f\xe4\x98[A!\xb5?'
p2240
tp2241
Rp2242
tp2243
a(g654
(g658
S'e\xcd\x11\x02Mj\xc1\xbf'
p2244
tp2245
Rp2246
g654
(g658
S'\xe8G\xa6\xea\xc5\xe0\xae?'
p2247
tp2248
Rp2249
tp2250
a(g654
(g658
S'G\xb1\xf36&\xae\xc0\xbf'
p2251
tp2252
Rp2253
g654
(g658
S'\xf9\xa21@2*\xa6?'
p2254
tp2255
Rp2256
tp2257
a(g654
(g658
S'\x93\\\xfb\x1dF=\xc5\xbf'
p2258
tp2259
Rp2260
g654
(g658
S'*\xdf\x97{\xf9\xa7\x99?'
p2261
tp2262
Rp2263
tp2264
a(g654
(g658
S'G\xb1\xf36&\xae\xc0\xbf'
p2265
tp2266
Rp2267
g654
(g658
S'\xf9\xa21@2*\xa6?'
p2268
tp2269
Rp2270
tp2271
asg752
(lp2272
g654
(g658
S'\xe2\xe9\xd7\xfb\xb3C\xed?'
p2273
tp2274
Rp2275
ag654
(g658
S'b\x1a\xaa\x8a\xc9K\xed?'
p2276
tp2277
Rp2278
ag654
(g658
S'\x95M\xdd\xbd\xfc~\xed?'
p2279
tp2280
Rp2281
ag654
(g658
S'+\x89\xccES8\xee?'
p2282
tp2283
Rp2284
ag654
(g658
S'\x05\t\x00\x12\xee5\xee?'
p2285
tp2286
Rp2287
ag654
(g658
S'\x05\t\x00\x12\xee5\xee?'
p2288
tp2289
Rp2290
ag654
(g658
S'S\x03\xa5a\xe8\xda\xed?'
p2291
tp2292
Rp2293
ag654
(g658
S'-\x86\xd29k\x08\xee?'
p2294
tp2295
Rp2296
ag654
(g658
S'S\x03\xa5a\xe8\xda\xed?'
p2297
tp2298
Rp2299
asg796
(dp2300
g798
g799
sg800
g801
sg806
g807
sg808
(lp2301
(lp2302
asg811
g6
(S'\x00\x00\x00\x00\x00\x00'
p2303
tp2304
Rp2305
sg815
g816
ssg824
(lp2306
g826
a(lp2307
g865
ag839
ag866
ag833
ag861
aa(lp2308
g839
ag865
ag833
ag866
ag836
aa(lp2309
g839
ag833
ag865
ag836
ag832
aa(lp2310
g839
ag833
ag836
ag829
ag865
aa(lp2311
g839
ag833
ag836
ag832
ag829
aa(lp2312
g839
ag833
ag836
ag829
ag832
aa(lp2313
g839
ag833
ag836
ag832
ag829
aa(lp2314
g839
ag833
ag836
ag829
ag832
aasg847
(g654
(g658
S'\xb8p\x8a\xb8f\xa0\xb2?'
p2315
tp2316
Rp2317
g654
(g658
S'\xc0\x8fE\x1b \xe8\xbc?'
p2318
tp2319
Rp2320
tp2321
sg855
g856
ssI6
(dp2322
g2
(lp2323
I0
aI0
aI1
aI0
aI0
aI0
aI0
aI0
aI0
asg4
(lp2324
(g6
(S'\x00\x08\x1a\x00\x00\x00'
p2325
tp2326
Rp2327
g10
((lp2328
g12
ag13
a(lp2329
F0.734948756337459
aF0.7923073992852433
aF0.15658417402073666
aF0.11858511081880874
aF0.5498511513258286
aF0.9356791847332785
aF0.07911862897115318
aF0.3851894844971784
aF0.8012082528616177
aF0.2571576643953011
aF0.5294707710324618
aF0.009377281755422184
aF0.9953838545806005
aF0.5456526745781273
aF0.37812425011478645
aF0.1398710463612991
aF0.0370100575559662
aF0.38355006777341083
aF0.00979718896757742
aF0.4120332480298716
aF0.9077271118148544
aF0.6373362456874825
aF0.6653893119157129
atp2330
tp2331
a(g6
(S'\x00\x08\x1b\x00\x00\x00'
p2332
tp2333
Rp2334
g20
(lp2335
F0.8183170190371474
aF0.9431002394826469
aF0.9309473372157708
aF0.3680161345662206
aF0.678355917093585
aF0.9185550646214962
aF0.451991743578404
aF0.9872698189561493
aF0.6933308734881052
aF0.016398515882631748
aF0.1669500312368949
aF0.6410472899552604
aF0.8531157389322225
aF0.698039265315064
aF0.7571552042105536
aF0.06491965948944134
aF0.2847875731167575
aF0.934490694455538
aF0.5587766825760215
aF0.655554934354687
aF0.9171430173067306
aF0.6250535338426565
aF0.9678996648569034
atp2336
a(g6
(S'\x00\x08\x1f\x00\x00\x00'
p2337
tp2338
Rp2339
g10
((lp2340
g12
ag13
a(lp2341
F0.8729395326962741
aF0.9853536528141656
aF0.4924765843607839
aF0.7198195525617997
aF0.031190264094337672
aF0.892530625648745
aF0.04877807208506768
aF0.3258148911114962
aF0.9068069416409126
aF0.4407852864680122
aF0.6712957757044288
aF0.8915285018957123
aF0.7508749729188101
aF0.6339259133157944
aF0.6737067403031896
aF0.5678700503547636
aF0.6553964285149161
aF0.47043210237838595
aF0.11696353069418242
aF0.6169656345523077
aF0.9849445553619963
aF0.06744470887190168
aF0.37221088373847255
atp2342
tp2343
a(g6
(S'\x00\x08 \x00\x00\x00'
p2344
tp2345
Rp2346
g20
(lp2347
F0.08198395527998392
aF0.9826355214414891
aF0.8256922461235953
aF0.32286308197490676
aF0.2362570707514876
aF0.43452133912588864
aF0.470153142222104
aF0.4650515039851517
aF0.7265158924120723
aF0.1891339028294604
aF0.37065825693519006
aF0.7016760513890965
aF0.7200457804574777
aF0.657281566269459
aF0.5325455647468896
aF0.5203677486056948
aF0.7791463760278101
aF0.45306090275218147
aF0.9890654345505635
aF0.1978211312571897
aF0.6814371406915698
aF0.7438966355433477
aF0.22483843801442727
atp2348
a(g6
(S'\x00\x08$\x00\x00\x00'
p2349
tp2350
Rp2351
g10
((lp2352
g12
ag13
a(lp2353
F0.9398662366837922
aF0.09335882872667023
aF0.5668481422462844
aF0.24225186688613842
aF0.4975977993547288
aF0.4633701876693064
aF0.5027992549622476
aF0.1270877155490444
aF0.7449616096061963
aF0.7780450018843236
aF0.26873614392689404
aF0.16236066381104908
aF0.38371768879902446
aF0.386035615064081
aF0.8408475443213257
aF0.8002296120823527
aF0.06756460611435178
aF0.7074161078397204
aF0.4972630321117196
aF0.8812886883796446
aF0.141012715715514
aF0.5839644682603576
aF0.12097385820096074
atp2354
tp2355
a(g6
(S'\x00\x08%\x00\x00\x00'
p2356
tp2357
Rp2358
g20
(lp2359
F0.7164489220916848
aF0.6578673287031985
aF0.06533523214679893
aF0.5239835360152273
aF0.775399353262615
aF0.07870900258296831
aF0.6444997288749225
aF0.300656536707971
aF0.32221631078918744
aF0.9140524088127179
aF0.5207954546075617
aF0.19877168644131504
aF0.47492708214052926
aF0.13092174820819447
aF0.30442004671123424
aF0.6256811966228556
aF0.14182397473430364
aF0.46567485836389066
aF0.0283783289063112
aF0.5393892357415144
aF0.4821338097583957
aF0.25958551993027645
aF0.7686940050071425
atp2360
a(g6
(S'\x00\x08)\x00\x00\x00'
p2361
tp2362
Rp2363
g10
((lp2364
g12
ag13
a(lp2365
F0.10328013091173938
aF0.21358787210998365
aF0.05850187348362634
aF0.39730273617858214
aF0.6405842814938004
aF0.02592120950348864
aF0.9256464510412417
aF0.09570643581178662
aF0.7846945474909989
aF0.6977552983006639
aF0.14261693361289784
aF0.29379818267339797
aF0.757065109407651
aF0.8574087818633358
aF0.8104748166688602
aF0.365052194933397
aF0.47335373423408744
aF0.6792242990129549
aF0.6588399962656625
aF0.034324302545326923
aF0.16482354644637853
aF0.1464484288841753
aF0.8046974205652965
atp2366
tp2367
a(g6
(S'\x00\x08*\x00\x00\x00'
p2368
tp2369
Rp2370
g20
(lp2371
F0.5936472019062843
aF0.4907569383954049
aF0.2888378680865832
aF0.580789483619227
aF0.6675439808690249
aF0.017755379924916603
aF0.9871852458020041
aF0.22326619589428875
aF0.7842313349302454
aF0.1926359331581966
aF0.30236348018343207
aF0.16262476616465504
aF0.989479802916838
aF0.9986023322333777
aF0.1738991065535661
aF0.3307655496216664
aF0.3367005189120319
aF0.949916609659763
aF0.5733365046747992
aF0.9530093497268917
aF0.019732012049176628
aF0.31827416471642467
aF0.7151480331638359
atp2372
a(g6
(S'\x00\x08.\x00\x00\x00'
p2373
tp2374
Rp2375
g10
((lp2376
g12
ag13
a(lp2377
F0.26331947388312893
aF0.6937918200582867
aF0.8156544370193604
aF0.15286195582953244
aF0.10346887437645758
aF0.49348872431252233
aF0.04637338111124378
aF0.9740841613738674
aF0.5273464194566915
aF0.6945900964252324
aF0.9826059757078723
aF0.025246861227757766
aF0.2293230826634055
aF0.42923739873951106
aF0.22378449955934665
aF0.3175919939035384
aF0.16747425363758106
aF0.6843899755731534
aF0.6669581730461802
aF0.6868030633410673
aF0.43789803551260054
aF0.469905861304712
aF0.07542883083898022
atp2378
tp2379
a(g6
(S'\x00\x08/\x00\x00\x00'
p2380
tp2381
Rp2382
g20
(lp2383
F0.39527593280321893
aF0.03859754628092604
aF0.652106883999702
aF0.03724918142269951
aF0.7469049437142675
aF0.9477428299659604
aF0.25834670233893986
aF0.2005183317165502
aF0.5898958079071126
aF0.30434730465194104
aF0.6401919519874956
aF0.8611222857051444
aF0.14397019050688487
aF0.9529620172586328
aF0.20848938574457487
aF0.2882581555396665
aF0.34479755721415395
aF0.47798470472592536
aF0.898049716544572
aF0.9570283169737871
aF0.6867933044440087
aF0.4817432545501096
aF0.8514259646932831
atp2384
a(g6
(S'\x00\x083\x00\x00\x00'
p2385
tp2386
Rp2387
g10
((lp2388
g12
ag13
a(lp2389
F0.3971294743293122
aF0.46416249540092624
aF0.6659491456645795
aF0.11826833980896667
aF0.3292709124603852
aF0.039675070510863275
aF0.9587366806321997
aF0.4877672723130888
aF0.20729730225906873
aF0.49649773233167527
aF0.8144201441707906
aF0.9966740583059014
aF0.2047494781857584
aF0.5365538055071186
aF0.5988361285183079
aF0.6132519048741509
aF0.6893614989807413
aF0.436136866939449
aF0.12992795686191883
aF0.3438496648357522
aF0.9141668469671815
aF0.2565545556543929
aF0.8981233800501957
atp2390
tp2391
a(g6
(S'\x00\x084\x00\x00\x00'
p2392
tp2393
Rp2394
g20
(lp2395
F0.6699026636861394
aF0.6859826004311147
aF0.7528644671621826
aF0.962072764544803
aF0.8544778819406088
aF0.8177343882553825
aF0.199817685018702
aF0.30515619655397164
aF0.3990287063976826
aF0.6352572094958087
aF0.6404860281679027
aF0.012784586871014358
aF0.2211879879292289
aF0.028903419151171783
aF0.2228436402631152
aF0.2386447186233871
aF0.18080137039646804
aF0.18767543079104498
aF0.8355811862157657
aF0.8688671226589214
aF0.8774594725157133
aF0.3087428161886898
aF0.967778518143307
atp2396
a(g6
(S'\x00\x088\x00\x00\x00'
p2397
tp2398
Rp2399
g10
((lp2400
g12
ag13
a(lp2401
F0.8176888498841925
aF0.13385912209480966
aF0.3471348957725149
aF0.5710890173755337
aF0.32393805507426177
aF0.10381933113603814
aF0.4269613765223046
aF0.5281227676439586
aF0.515458291244906
aF0.16390759616330697
aF0.3238630268242654
aF0.39121095027692154
aF0.3768992858610274
aF0.48392301856539954
aF0.5777342553036329
aF0.27773838440272136
aF0.5506629774083921
aF0.8334766252259806
aF0.4461645133239661
aF0.7745488307313468
aF0.16542567425698518
aF0.9572571507110672
aF0.4517638463093887
atp2402
tp2403
a(g6
(S'\x00\x089\x00\x00\x00'
p2404
tp2405
Rp2406
g20
(lp2407
F0.8580651339697712
aF0.644235129535011
aF0.4384736439503165
aF0.5701582808030808
aF0.5739944833639017
aF0.8368985534936724
aF0.7426827231825179
aF0.11298461909153501
aF0.37356192846936065
aF0.5385753438333368
aF0.8122742447795753
aF0.06378820231073079
aF0.38915715078948565
aF0.5087827847369388
aF0.9797948699092297
aF0.728642230385942
aF0.6844144208713756
aF0.5814450481620682
aF0.08734750418401571
aF0.7468149625306888
aF0.1369081881682459
aF0.38345938100668975
aF0.1062505631022489
atp2408
a(g6
(S'\x00\t\x01\x00\x00\x00'
p2409
tp2410
Rp2411
g10
((lp2412
g12
ag13
a(lp2413
F0.686153389986511
aF0.5223282222009644
aF0.03408794508997992
aF0.058571937780707795
aF0.5173669971897404
aF0.6556974167022901
aF0.003987802878139046
aF0.3680038692799008
aF0.8584176892714276
aF0.6144407176595085
aF0.1547206938282848
aF0.161514182830505
aF0.15965251297360716
aF0.7150887277198739
aF0.8557601032658407
aF0.6687971599900159
aF0.58598250542273
aF0.03822569301347889
aF0.15545321884363983
aF0.6773587904576065
aF0.12069145319169894
aF0.10441147110727333
aF0.32234151471697625
atp2414
tp2415
a(g6
(S'\x00\t\x02\x00\x00\x00'
p2416
tp2417
Rp2418
g20
(lp2419
F0.6046783761300198
aF0.665042354615101
aF0.1998201991723425
aF0.9369281449325182
aF0.34625273041126925
aF0.4441906455472755
aF0.04268180213316608
aF0.2009587858003573
aF0.9520668243977983
aF0.29403816727647347
aF0.12221872098870534
aF0.4117398808208993
aF0.42205801899517204
aF0.17877557709456204
aF0.5011210276352484
aF0.002974121953836617
aF0.4032321937375756
aF0.03779056762127975
aF0.9382718545180256
aF0.7074146565593411
aF0.504995682777176
aF0.3707955013267292
aF0.08518481013143853
atp2420
a(g6
(S'\x00\t\x06\x00\x00\x00'
p2421
tp2422
Rp2423
g10
((lp2424
g12
ag13
a(lp2425
F0.9110143231966635
aF0.6888873861030975
aF0.15523156130180316
aF0.2961777078172394
aF0.2640439348367136
aF0.710098305613771
aF0.23693034826522708
aF0.8331223181622951
aF0.842062081721739
aF0.44868052889464094
aF0.3910188029392575
aF0.5347215192379441
aF0.11246012053997567
aF0.15191195549809078
aF0.8374476560459965
aF0.5079702943909457
aF0.45203647660070845
aF0.10599721222381642
aF0.3028657466604029
aF0.1274503186517153
aF0.6172141401041159
aF0.5097526866455502
aF0.29225132037903745
atp2426
tp2427
a(g6
(S'\x00\t\x07\x00\x00\x00'
p2428
tp2429
Rp2430
g20
(lp2431
F0.46781669064285614
aF0.43868366054630614
aF0.9310367051330479
aF0.28362164601573814
aF0.4725657618526795
aF0.1565622111199505
aF0.348820257829374
aF0.18873566197730918
aF0.05402353390204939
aF0.47271067051612026
aF0.7884129548532488
aF0.23648107887626346
aF0.8961267707446315
aF0.054881367603376696
aF0.9686847402652378
aF0.6165573259705629
aF0.8632746547234479
aF0.9384145896411459
aF0.7316898109295988
aF0.8095839584772693
aF0.6816552938996144
aF0.7458406974454224
aF0.6054017185362758
atp2432
asg167
(dp2433
I1
(lp2434
(lp2435
S'121,182,150,182,150'
p2436
aS'118,209,169,209,169'
p2437
aS'59,268,41,197,206'
p2438
aS'95,120,87,173,201'
p2439
aS'66,73,129,165,215'
p2440
aS'73,76,133,174,253'
p2441
aS'69,126,120,155,215'
p2442
aS'129,211,190,211,190'
p2443
aS'128,176,192,176,192'
p2444
aa(lp2445
S'128,176,192,176,192'
p2446
aS'129,211,190,211,190'
p2447
aS'106,165,310,165,310'
p2448
aS'111,170,309,170,309'
p2449
aS'103,167,317,167,317'
p2450
aS'114,177,299,177,299'
p2451
aS'96,168,297,168,297'
p2452
aS'82,158,300,158,300'
p2453
aS'76,155,300,155,300'
p2454
aS'89,158,289,158,289'
p2455
aasI2
(lp2456
(lp2457
S'121,108,57,151,227'
p2458
aS'59,250,137,178,229'
p2459
aS'118,294,165,178,244'
p2460
aS'83,262,243,191,249'
p2461
aS'92,241,261,198,257'
p2462
aS'90,239,278,191,272'
p2463
aS'50,64,179,115,184'
p2464
aS'73,89,190,89,190'
p2465
aS'124,101,175,110,194'
p2466
aS'71,91,181,132,214'
p2467
aS'98,85,187,117,211'
p2468
aS'66,65,182,125,207'
p2469
aa(lp2470
S'101,165,256,165,256'
p2471
aS'126,160,260,160,260'
p2472
aS'108,148,264,148,264'
p2473
aS'62,141,257,141,257'
p2474
aS'87,136,264,136,264'
p2475
aS'89,139,302,139,302'
p2476
aS'76,148,305,148,305'
p2477
aS'116,132,308,132,308'
p2478
aS'78,134,292,134,292'
p2479
aS'117,122,292,122,292'
p2480
aS'125,118,288,118,288'
p2481
aS'104,114,287,114,287'
p2482
aasI3
(lp2483
(lp2484
S'121,108,57,173,280'
p2485
aS'59,250,137,165,281'
p2486
aS'83,262,243,163,284'
p2487
aS'118,294,165,178,288'
p2488
aS'92,241,261,172,292'
p2489
aS'112,221,218,167,287'
p2490
aS'90,239,278,171,287'
p2491
aS'60,223,254,176,302'
p2492
aS'66,65,182,155,225'
p2493
aS'73,49,195,147,239'
p2494
aS'63,59,250,153,253'
p2495
aS'74,57,226,156,242'
p2496
aS'124,101,175,162,229'
p2497
aS'71,91,181,149,237'
p2498
aS'98,85,187,153,246'
p2499
aS'123,154,201,154,257'
p2500
aS'100,140,204,153,246'
p2501
aS'115,145,190,150,242'
p2502
aS'110,126,193,165,265'
p2503
aS'69,122,197,180,267'
p2504
aS'95,113,202,161,251'
p2505
aS'129,201,222,158,253'
p2506
aS'122,207,234,157,256'
p2507
aa(lp2508
S'76,148,305,145,304'
p2509
aS'78,131,294,131,294'
p2510
aS'114,160,312,160,312'
p2511
aS'89,139,302,139,302'
p2512
aS'116,132,308,132,308'
p2513
aS'102,128,310,128,310'
p2514
aS'82,139,319,139,319'
p2515
aS'117,122,292,122,292'
p2516
aS'125,118,288,118,288'
p2517
aS'104,114,287,114,287'
p2518
aasI4
(lp2519
(lp2520
S'121,185,118,185,118'
p2521
aS'73,47,158,149,84'
p2522
aS'118,293,172,159,94'
p2523
aS'59,256,185,156,88'
p2524
aS'83,269,125,160,85'
p2525
aS'71,93,172,163,90'
p2526
aS'98,87,153,163,88'
p2527
aS'23,74,144,68,143'
p2528
aS'66,75,148,166,76'
p2529
aS'124,110,137,159,84'
p2530
aS'95,115,132,157,82'
p2531
aS'74,71,116,146,80'
p2532
aS'63,144,85,144,85'
p2533
aS'115,162,129,160,89'
p2534
aS'123,154,122,165,88'
p2535
aS'69,133,134,154,80'
p2536
aS'110,136,135,153,71'
p2537
aS'112,228,117,158,83'
p2538
aS'60,242,109,159,77'
p2539
aS'61,261,86,166,76'
p2540
aS'92,257,96,162,75'
p2541
aS'4,102,93,84,109'
p2542
aS'109,101,96,169,64'
p2543
aS'25,102,81,164,48'
p2544
aS'100,142,118,174,53'
p2545
aS'122,205,100,173,70'
p2546
aS'68,211,109,149,57'
p2547
aS'129,209,105,167,73'
p2548
aS'81,103,83,103,83'
p2549
aa(lp2550
S'102,145,48,145,48'
p2551
aS'117,149,51,149,51'
p2552
aS'125,139,59,139,59'
p2553
aS'116,156,41,156,41'
p2554
aS'82,160,30,160,30'
p2555
aS'106,171,31,171,31'
p2556
aS'111,172,47,172,47'
p2557
aS'114,172,44,172,44'
p2558
aS'67,135,46,135,46'
p2559
aS'79,127,40,127,40'
p2560
aS'97,125,34,125,34'
p2561
aasI5
(lp2562
(lp2563
S'43,143,92,139,155'
p2564
aS'25,120,64,77,186'
p2565
aS'4,123,77,84,185'
p2566
aS'32,112,79,89,184'
p2567
aS'3,10,345,78,193'
p2568
aS'18,27,338,79,188'
p2569
aS'14,18,317,84,187'
p2570
aS'10,48,272,80,192'
p2571
aS'5,61,264,81,186'
p2572
aS'52,36,254,88,187'
p2573
aS'49,70,248,83,192'
p2574
aS'21,132,101,79,189'
p2575
aS'36,120,88,81,188'
p2576
aS'44,92,74,83,199'
p2577
aS'41,115,102,77,185'
p2578
aS'34,124,131,81,191'
p2579
aS'38,115,108,84,188'
p2580
aS'27,112,111,83,188'
p2581
aS'24,83,89,86,190'
p2582
aS'35,77,96,80,197'
p2583
aS'23,92,113,88,191'
p2584
aS'37,121,73,121,73'
p2585
aa(lp2586
S'57,88,190,89,189'
p2587
aS'39,96,194,88,186'
p2588
aS'50,83,175,83,175'
p2589
aS'45,99,191,85,192'
p2590
aS'12,63,183,71,182'
p2591
aS'53,84,213,79,200'
p2592
aS'11,94,205,81,198'
p2593
aS'33,100,198,86,195'
p2594
aS'15,84,182,78,191'
p2595
aS'16,77,182,78,188'
p2596
aS'30,64,181,80,195'
p2597
aasI6
(lp2598
(lp2599
S'34,99,118,56,183'
p2600
aS'27,97,111,67,200'
p2601
aS'41,97,102,56,189'
p2602
aS'38,97,94,69,170'
p2603
aS'21,103,89,69,178'
p2604
aS'32,90,89,64,175'
p2605
aS'36,101,87,56,201'
p2606
aS'35,56,105,65,180'
p2607
aS'24,58,95,58,163'
p2608
aS'23,71,98,60,173'
p2609
aS'44,67,87,61,183'
p2610
aS'4,104,77,51,197'
p2611
aS'37,105,79,50,197'
p2612
aS'25,99,70,55,186'
p2613
aS'43,123,86,47,196'
p2614
aS'3,10,342,57,189'
p2615
aS'18,27,344,59,194'
p2616
aS'14,16,318,60,182'
p2617
aS'5,48,258,56,180'
p2618
aS'49,58,250,62,161'
p2619
aS'10,28,258,55,178'
p2620
aS'52,24,252,63,180'
p2621
aS'1,60,122,59,171'
p2622
aS'22,29,135,56,181'
p2623
aS'19,62,135,62,188'
p2624
aS'26,65,137,58,202'
p2625
aS'40,62,143,61,199'
p2626
aS'28,52,143,66,201'
p2627
aS'55,60,141,61,193'
p2628
aS'29,65,150,58,176'
p2629
aS'54,72,147,60,169'
p2630
aS'48,77,158,51,192'
p2631
aS'17,76,170,63,180'
p2632
aS'20,35,151,63,177'
p2633
aS'47,39,169,65,182'
p2634
aS'0,21,189,60,191'
p2635
aS'42,19,206,55,179'
p2636
aS'31,54,226,60,185'
p2637
aS'13,48,236,62,189'
p2638
aS'58,40,227,54,186'
p2639
aa(lp2640
S'39,65,182,59,181'
p2641
aS'30,52,181,56,188'
p2642
aS'6,58,209,62,214'
p2643
aS'53,70,203,66,204'
p2644
aS'16,68,195,66,194'
p2645
aS'15,67,186,63,184'
p2646
aS'46,35,191,31,189'
p2647
aS'50,63,170,66,172'
p2648
aS'8,64,218,64,218'
p2649
aS'12,65,175,65,175'
p2650
aS'7,54,169,54,169'
p2651
aS'9,36,181,36,181'
p2652
aS'51,38,187,38,187'
p2653
aS'56,49,197,49,197'
p2654
aS'57,69,175,69,175'
p2655
aS'33,81,180,81,180'
p2656
aS'2,64,158,64,158'
p2657
aS'11,84,185,84,185'
p2658
aS'45,82,185,82,185'
p2659
aasI7
(lp2660
(lp2661
S'121,81,194,127,41'
p2662
aS'71,66,123,125,41'
p2663
aS'73,22,124,124,44'
p2664
aS'98,62,107,144,28'
p2665
aS'66,65,102,128,31'
p2666
aS'63,71,83,161,20'
p2667
aS'74,71,83,166,8'
p2668
aS'124,99,82,156,10'
p2669
aS'95,103,70,171,7'
p2670
aS'68,200,84,157,34'
p2671
aS'118,269,82,136,0'
p2672
aS'61,262,78,178,15'
p2673
aS'83,259,89,162,11'
p2674
aS'59,248,87,168,13'
p2675
aS'60,248,77,178,35'
p2676
aS'70,246,60,151,12'
p2677
aS'92,250,56,161,17'
p2678
aS'109,90,55,173,24'
p2679
aS'81,92,51,158,9'
p2680
aS'123,136,79,167,30'
p2681
aS'110,130,76,147,26'
p2682
aS'69,131,70,166,7'
p2683
aS'62,145,75,165,19'
p2684
aa(lp2685
S'82,157,16,160,9'
p2686
aS'93,113,27,113,27'
p2687
aS'97,116,23,116,23'
p2688
aS'125,126,29,126,29'
p2689
aS'102,131,30,131,30'
p2690
aS'67,120,38,120,38'
p2691
aS'79,108,36,108,36'
p2692
aS'104,108,39,108,39'
p2693
aS'85,120,36,120,36'
p2694
aS'87,153,29,153,29'
p2695
aS'111,147,24,147,24'
p2696
aS'89,145,21,145,21'
p2697
aS'114,144,20,144,20'
p2698
aS'117,148,16,148,16'
p2699
aS'116,152,17,152,17'
p2700
aS'106,156,18,156,18'
p2701
aS'119,164,11,164,11'
p2702
aS'108,159,30,159,30'
p2703
aS'128,161,32,161,32'
p2704
aasI8
(lp2705
(lp2706
S'121,98,145,143,35'
p2707
aS'71,68,108,136,21'
p2708
aS'73,17,107,171,0'
p2709
aS'98,69,88,150,17'
p2710
aS'66,71,90,156,12'
p2711
aS'74,72,71,148,11'
p2712
aS'62,137,76,157,14'
p2713
aS'123,142,68,145,10'
p2714
aS'25,80,68,140,8'
p2715
aS'63,81,69,153,8'
p2716
aS'95,97,64,141,16'
p2717
aS'124,113,61,154,8'
p2718
aS'118,267,73,182,9'
p2719
aS'61,259,78,137,1'
p2720
aS'83,253,85,144,-3'
p2721
aS'60,238,67,163,9'
p2722
aS'59,240,64,119,-4'
p2723
aS'70,233,59,180,22'
p2724
aS'92,244,51,170,8'
p2725
aS'68,189,81,154,14'
p2726
aa(lp2727
S'87,149,21,149,21'
p2728
aS'89,143,18,147,12'
p2729
aS'125,134,23,140,20'
p2730
aS'108,165,25,162,17'
p2731
aS'85,120,31,124,28'
p2732
aS'111,152,22,152,22'
p2733
aS'117,151,14,151,14'
p2734
aS'82,153,15,153,15'
p2735
aS'116,154,12,154,12'
p2736
aS'106,156,19,156,19'
p2737
aS'114,150,17,150,17'
p2738
aS'102,136,26,136,26'
p2739
aS'93,121,20,121,20'
p2740
aS'119,165,10,165,10'
p2741
aS'67,122,38,122,38'
p2742
aS'94,129,37,129,37'
p2743
aassg652
(lp2744
(g654
(g658
S'\x19\x949lQ\xb3\xa7?'
p2745
tp2746
Rp2747
g654
(g658
S'\x8a\nt\xd6\tW\xb6?'
p2748
tp2749
Rp2750
tp2751
a(g654
(g658
S'\xf3jJ\xfb\xf0\xfa\x97?'
p2752
tp2753
Rp2754
g654
(g658
S'\x9b.\x97\x94\xa2\xc2\xac?'
p2755
tp2756
Rp2757
tp2758
a(g654
(g658
S'\x19\x949lQ\xb3\xa7?'
p2759
tp2760
Rp2761
g654
(g658
S'\x8a\nt\xd6\tW\xb6?'
p2762
tp2763
Rp2764
tp2765
a(g654
(g658
S'\x8d\xaa\x1d\xabP|\x92?'
p2766
tp2767
Rp2768
g654
(g658
S':@\xd1\x94\xa3\xf3\xac?'
p2769
tp2770
Rp2771
tp2772
a(g654
(g658
S'+\xae\xac\x88P\xab\x84\xbf'
p2773
tp2774
Rp2775
g654
(g658
S'L\x0c\xcf8kG\xa2?'
p2776
tp2777
Rp2778
tp2779
a(g654
(g658
S'f\xd3\xde\xe8\x98\xc5\xa5\xbf'
p2780
tp2781
Rp2782
g654
(g658
S'\x95\x1f&\xc1\xbb\x85\x86\xbf'
p2783
tp2784
Rp2785
tp2786
a(g654
(g658
S'\xa7\xa0_\x11U\xd8\xb2\xbf'
p2787
tp2788
Rp2789
g654
(g658
S'<\xfb\x9e\xe3fm\x9e\xbf'
p2790
tp2791
Rp2792
tp2793
a(g654
(g658
S'\\\xf1\xe5v\x1a5\xb8\xbf'
p2794
tp2795
Rp2796
g654
(g658
S'\xb9\xc2\xf5kq \xac\xbf'
p2797
tp2798
Rp2799
tp2800
a(g654
(g658
S'u\xf1\xae8\xda\x12\xbf\xbf'
p2801
tp2802
Rp2803
g654
(g658
S'#\x8dpO\xea\xf7\xb8\xbf'
p2804
tp2805
Rp2806
tp2807
asg752
(lp2808
g654
(g658
S'\xe2\xe9\xd7\xfb\xb3C\xed?'
p2809
tp2810
Rp2811
ag654
(g658
S'FS8n\x02\xda\xed?'
p2812
tp2813
Rp2814
ag654
(g658
S'[\xb6\x02j\x9b8\xee?'
p2815
tp2816
Rp2817
ag654
(g658
S'FS8n\x02\xda\xed?'
p2818
tp2819
Rp2820
ag654
(g658
S'\xbd\xc1\xb8\xca\xa6\xee\xee?'
p2821
tp2822
Rp2823
ag654
(g658
S'e\x14\xb6r\xf9\xeb\xee?'
p2824
tp2825
Rp2826
ag654
(g658
S'c\x0e\xb9c\x0e\xb9\xee?'
p2827
tp2828
Rp2829
ag654
(g658
S'3<*N\x06\x96\xee?'
p2830
tp2831
Rp2832
ag654
(g658
S'\xf0\xee\xee\xee\xee\xee\xee?'
p2833
tp2834
Rp2835
ag654
(g658
S'\xed\xf1\xe8\xfa\xd6\x1e\xef?'
p2836
tp2837
Rp2838
asg796
(dp2839
g798
g799
sg800
g801
sg806
g807
sg808
(lp2840
(lp2841
asg811
g6
(S'\x00\x00\x00\x00\x00\x00'
p2842
tp2843
Rp2844
sg815
g816
ssg824
(lp2845
g826
a(lp2846
g832
ag833
ag829
ag830
ag836
aa(lp2847
g832
ag833
ag829
ag839
ag836
aa(lp2848
g832
ag833
ag829
ag830
ag836
aa(lp2849
g832
ag833
ag839
ag829
ag836
aa(lp2850
g832
ag833
ag839
ag830
ag829
aa(lp2851
g832
ag833
ag830
ag839
ag836
aa(lp2852
g832
ag833
ag830
ag839
ag836
aa(lp2853
g832
ag833
ag839
ag830
ag829
aa(lp2854
g832
ag833
ag839
ag829
ag830
aasg847
(g654
(g658
S'\xb8p\x8a\xb8f\xa0\xb2?'
p2855
tp2856
Rp2857
g654
(g658
S'\xc0\x8fE\x1b \xe8\xbc?'
p2858
tp2859
Rp2860
tp2861
sg855
g856
ssI7
(dp2862
g2
(lp2863
I0
aI0
aI0
aI0
asg4
(lp2864
(g6
(S'\x00\x08\x1a\x00\x00\x00'
p2865
tp2866
Rp2867
g10
((lp2868
g12
ag13
a(lp2869
F0.8306194521725099
aF0.4639470863083299
aF0.8987823258754614
aF0.9212257561460236
aF0.4593753977247582
aF0.13919434862264923
aF0.6870908778724273
aF0.5515891664009555
aF0.7659237026885879
aF0.6939702867969177
aF0.696612161533781
aF0.6168030309976159
aF0.7447983494886288
aF0.7161567255566563
aF0.026091735331953303
aF0.28294987275836936
aF0.4796469812613815
aF0.6501119218905874
aF0.13036405470207635
aF0.7072199629482814
aF0.5455620359799221
aF0.9889642777714823
aF0.5494023189615469
atp2870
tp2871
a(g6
(S'\x00\x08\x1b\x00\x00\x00'
p2872
tp2873
Rp2874
g20
(lp2875
F0.050946451316461694
aF0.48428639758858183
aF0.9651918247787552
aF0.646303870213248
aF0.2847303721310577
aF0.8930460730778126
aF0.33266714126166497
aF0.2929742049535734
aF0.11731808941228639
aF0.1654984941479637
aF0.8486625499237096
aF0.08619192612447524
aF0.8741087627950926
aF0.7744844393312634
aF0.009158524162664161
aF0.6029130446083832
aF0.8371340027919918
aF0.18946938722654438
aF0.4282793222041811
aF0.6706411678330053
aF0.7310037445453695
aF0.3954824948079555
aF0.35240510567917993
atp2876
a(g6
(S'\x00\x08\x1f\x00\x00\x00'
p2877
tp2878
Rp2879
g10
((lp2880
g12
ag13
a(lp2881
F0.20279691961346624
aF0.10817059155612496
aF0.23055736022192863
aF0.403148209656769
aF0.25977790550454205
aF0.6101997959332167
aF0.09608333104761002
aF0.09116788852503444
aF0.9496241380494214
aF0.021922560749895847
aF0.4700872858414722
aF0.5517209148808757
aF0.042540357334475365
aF0.29724081893218735
aF0.1462244604195566
aF0.6344103537686075
aF0.431125280895422
aF0.5764278744540338
aF0.7548587313215955
aF0.5086973526004357
aF0.0734700573408752
aF0.9073012300085727
aF0.4481285230502875
atp2882
tp2883
a(g6
(S'\x00\x08 \x00\x00\x00'
p2884
tp2885
Rp2886
g20
(lp2887
F0.9459384394465844
aF0.35758063568159404
aF0.16106717721866126
aF0.3186136315463127
aF0.42445424715644786
aF0.3332309814385217
aF0.34723929147011534
aF0.2375535755457392
aF0.28206283059108794
aF0.544671235570162
aF0.1179829847925995
aF0.4800880805058386
aF0.551985068804427
aF0.2794634095451629
aF0.46008304123407795
aF0.9538049687450503
aF0.6013502476827329
aF0.11125348498316223
aF0.28851309200533026
aF0.3802006128082821
aF0.2563487934926897
aF0.0002829065296559019
aF0.8186442882637699
atp2888
a(g6
(S'\x00\x08$\x00\x00\x00'
p2889
tp2890
Rp2891
g10
((lp2892
g12
ag13
a(lp2893
F0.0644482570123115
aF0.24055859242822752
aF0.0805925285994521
aF0.5142037880550681
aF0.6237039419543218
aF0.5159740558706356
aF0.406692622227967
aF0.3862101814818426
aF0.2118307042405051
aF0.4157630686675984
aF0.7482136420895773
aF0.34625203320511366
aF0.6349424670395059
aF0.6550691106686486
aF0.03946568651371263
aF0.032011845680071316
aF0.4664839950003681
aF0.9747401518034592
aF0.9157864555468261
aF0.10859795626474433
aF0.34716596014303747
aF0.5382296552624727
aF0.3670189238905861
atp2894
tp2895
a(g6
(S'\x00\x08%\x00\x00\x00'
p2896
tp2897
Rp2898
g20
(lp2899
F0.778717174313951
aF0.4888273918281363
aF0.8041434102912347
aF0.5851828934566476
aF0.044794962927491744
aF0.0660483138119875
aF0.18715228288203112
aF0.6252561700852041
aF0.6580609131726703
aF0.6018775816752947
aF0.01627710372886093
aF0.8197932254443555
aF0.5501818597572429
aF0.12003063050830887
aF0.14450393645920312
aF0.8289701547351634
aF0.7870884475357334
aF0.8459180843884403
aF0.44873267758406377
aF0.1413205496347565
aF0.12890036876076783
aF0.456801206557815
aF0.756101414787335
atp2900
a(g6
(S'\x00\x08)\x00\x00\x00'
p2901
tp2902
Rp2903
g10
((lp2904
g12
ag13
a(lp2905
F0.9711110187663387
aF0.835475592734543
aF0.6886753761002281
aF0.4410608293871171
aF0.9844461262900733
aF0.7725557895854782
aF0.5384891026379736
aF0.8953823641854801
aF0.18023206788144197
aF0.9649159713931031
aF0.2828437696784094
aF0.07023772174938248
aF0.12383979605263151
aF0.4903148872530876
aF0.9432766955516639
aF0.3891996490184061
aF0.6197265386971109
aF0.08735131163521093
aF0.948795601159091
aF0.2783526796524145
aF0.6643618215329199
aF0.1296409157578955
aF0.9985344577023466
atp2906
tp2907
a(g6
(S'\x00\x08*\x00\x00\x00'
p2908
tp2909
Rp2910
g20
(lp2911
F0.6329238600251994
aF0.3511362383829375
aF0.3551746321134944
aF0.8570741287054262
aF0.37445916896363374
aF0.8985167979879471
aF0.13895210894543608
aF0.7896135109068709
aF0.8516022970208056
aF0.3401990275154526
aF0.6028379204306443
aF0.5206897587260395
aF0.7394014360197825
aF0.7349092192096679
aF0.7626203216444437
aF0.9687886950581658
aF0.15506187590310594
aF0.6528927167115027
aF0.6256631241422264
aF0.0026117799767733096
aF0.5422360320021707
aF0.5059338786916121
aF0.7992606399698913
atp2912
asg167
(dp2913
I1
(lp2914
(lp2915
S'8,57,135,57,135'
p2916
aS'28,64,135,64,135'
p2917
aS'50,61,160,61,160'
p2918
aS'19,53,186,53,186'
p2919
aS'24,73,214,73,214'
p2920
aS'26,75,224,75,224'
p2921
aS'54,70,223,70,223'
p2922
aS'30,50,214,50,214'
p2923
aS'29,81,181,81,181'
p2924
aa(lp2925
S'14,19,51,68,184'
p2926
aS'3,17,18,71,197'
p2927
aS'18,32,122,66,195'
p2928
aS'55,43,277,75,192'
p2929
aS'32,84,302,79,193'
p2930
aS'45,111,145,60,204'
p2931
aS'37,81,306,81,306'
p2932
aasI2
(lp2933
(lp2934
S'23,72,196,72,196'
p2935
aS'29,67,196,67,196'
p2936
aS'19,50,194,50,194'
p2937
aS'30,49,199,49,199'
p2938
aS'1,54,157,54,157'
p2939
aS'50,55,158,55,158'
p2940
aS'40,51,165,51,165'
p2941
aS'6,72,152,72,152'
p2942
aS'12,62,155,62,155'
p2943
aS'38,92,198,92,198'
p2944
aS'21,106,183,106,183'
p2945
aS'45,100,146,100,146'
p2946
aS'11,83,152,83,152'
p2947
aS'57,83,151,83,151'
p2948
aa(lp2949
S'3,16,30,66,184'
p2950
aS'14,17,62,73,181'
p2951
aS'37,79,301,74,182'
p2952
aS'32,77,297,72,177'
p2953
aS'35,49,263,81,182'
p2954
aS'55,42,260,84,176'
p2955
aS'44,49,291,80,177'
p2956
aasI3
(lp2957
(lp2958
S'45,90,206,97,170'
p2959
aS'53,66,203,92,190'
p2960
aS'21,88,151,88,151'
p2961
aS'57,69,195,69,195'
p2962
aS'1,47,176,47,176'
p2963
aS'19,46,168,46,168'
p2964
aS'15,56,155,56,155'
p2965
aS'16,56,154,56,154'
p2966
aS'29,52,155,52,155'
p2967
aS'17,65,143,65,143'
p2968
aS'26,61,141,61,141'
p2969
aS'28,50,195,50,195'
p2970
aS'12,58,184,58,184'
p2971
aS'40,44,185,44,185'
p2972
aa(lp2973
S'3,17,336,68,173'
p2974
aS'14,18,309,75,172'
p2975
aS'18,31,287,83,168'
p2976
aS'10,40,271,76,182'
p2977
aS'37,77,62,73,166'
p2978
aS'32,70,71,71,167'
p2979
aS'20,19,181,82,169'
p2980
aS'52,28,270,77,164'
p2981
aS'47,25,180,64,165'
p2982
aasI4
(lp2983
(lp2984
S'58,32,214,32,214'
p2985
aS'46,38,201,38,201'
p2986
aS'56,34,204,34,204'
p2987
aS'51,28,198,28,198'
p2988
aS'27,42,193,42,193'
p2989
aS'41,42,191,42,191'
p2990
aS'50,40,194,40,194'
p2991
aS'6,50,195,50,195'
p2992
aS'8,52,200,52,200'
p2993
aS'47,23,180,23,180'
p2994
aS'40,39,168,39,168'
p2995
aS'30,47,164,47,164'
p2996
aS'28,45,178,45,178'
p2997
aS'31,42,181,42,181'
p2998
aa(lp2999
S'3,42,314,42,314'
p3000
aS'24,39,129,27,200'
p3001
aS'55,38,129,27,220'
p3002
aS'37,75,55,30,186'
p3003
aS'27,75,89,42,193'
p3004
aS'41,81,83,42,191'
p3005
aS'14,21,291,48,205'
p3006
aS'32,66,70,40,182'
p3007
aS'43,100,105,48,192'
p3008
aS'63,45,124,45,124'
p3009
aassg652
(lp3010
(g654
(g658
S'z\xd1^\xe6\xe4_\xb1?'
p3011
tp3012
Rp3013
g654
(g658
S'IF\xff\xf7\xcb\xad\xb9?'
p3014
tp3015
Rp3016
tp3017
a(g654
(g658
S'\xba\x14\xf5\x1ao\xb1\xb1?'
p3018
tp3019
Rp3020
g654
(g658
S'\xd4\xce\xb3\xfb\x1c\xb0\xb4?'
p3021
tp3022
Rp3023
tp3024
a(g654
(g658
S'\xb2\xf8\x04\xdfJ\r\xb6?'
p3025
tp3026
Rp3027
g654
(g658
S'*M#\xcc\xc7\xb5\xb2?'
p3028
tp3029
Rp3030
tp3031
a(g654
(g658
S'-L\x1f\x18\xc35\xba?'
p3032
tp3033
Rp3034
g654
(g658
S'hN\xf5\x8eg\xc3\xb1?'
p3035
tp3036
Rp3037
tp3038
asg752
(lp3039
g654
(g658
S'\xe2\xe9\xd7\xfb\xb3C\xed?'
p3040
tp3041
Rp3042
ag654
(g658
S'=\x9a\xddVdI\xed?'
p3043
tp3044
Rp3045
ag654
(g658
S'\xfaR\x9f\x068\xd5\xed?'
p3046
tp3047
Rp3048
ag654
(g658
S"\x82\xdb'\x8f\xc0]\xee?"
p3049
tp3050
Rp3051
ag654
(g658
S"\x82\xdb'\x8f\xc0]\xee?"
p3052
tp3053
Rp3054
asg796
(dp3055
g798
g799
sg800
g801
sg806
g807
sg808
(lp3056
(lp3057
asg811
g6
(S'\x00\x00\x00\x00\x00\x00'
p3058
tp3059
Rp3060
sg815
g816
ssg824
(lp3061
g826
a(lp3062
g803
ag830
ag836
ag868
ag805
aa(lp3063
g830
ag805
ag803
ag829
ag836
aa(lp3064
g830
ag805
ag836
ag803
ag829
aa(lp3065
g830
ag836
ag805
ag829
ag858
aasg847
(g654
(g658
S'\xb8p\x8a\xb8f\xa0\xb2?'
p3066
tp3067
Rp3068
g654
(g658
S'\xc0\x8fE\x1b \xe8\xbc?'
p3069
tp3070
Rp3071
tp3072
sg855
g856
ssI8
(dp3073
g2
(lp3074
I0
aI0
aI0
aI0
aI0
aI0
aI0
aI0
aI0
aI1
aI0
aI1
asg4
(lp3075
(g6
(S'\x00\x08\x1a\x00\x00\x00'
p3076
tp3077
Rp3078
g10
((lp3079
g12
ag13
a(lp3080
F0.9938536471038178
aF0.019831798213268192
aF0.31562282113812556
aF0.4088469288947143
aF0.7807132924500205
aF0.09931353078489247
aF0.5411379321544836
aF0.48176008837510764
aF0.7578266665377276
aF0.9662828993982989
aF0.7665326088233926
aF0.779036154543113
aF0.312271223420441
aF0.2199640619785087
aF0.34759789437705757
aF0.903829289450887
aF0.15990458655455364
aF0.3938445750878796
aF0.41842640682237364
aF0.18177823025271644
aF0.040565936675645675
aF0.4999898234803821
aF0.6156136152015068
atp3081
tp3082
a(g6
(S'\x00\x08\x1b\x00\x00\x00'
p3083
tp3084
Rp3085
g20
(lp3086
F0.6464863754517806
aF0.4475057876579448
aF0.4369309164968136
aF0.9566534108498334
aF0.6573367609106318
aF0.5349833461339386
aF0.004914814991353489
aF0.2743639363823549
aF0.43617288541388
aF0.5871479026734577
aF0.9654192883594656
aF0.46883015532327466
aF0.6773620966087947
aF0.03214650170894606
aF0.8680827232777497
aF0.4199816503990067
aF0.542819440292348
aF0.5094118551457144
aF0.11819235493743885
aF0.16503997705467965
aF0.2830597977517353
aF0.5878646040865475
aF0.02105787486482258
atp3087
a(g6
(S'\x00\x08\x1f\x00\x00\x00'
p3088
tp3089
Rp3090
g10
((lp3091
g12
ag13
a(lp3092
F0.7966758351529964
aF0.1767215337390713
aF0.5291086016340386
aF0.9218994253690384
aF0.253625689886793
aF0.8244205902381407
aF0.9450983792983746
aF0.8022974138975044
aF0.7664549403408655
aF0.3830874725343605
aF0.5124725038792729
aF0.7267339450077455
aF0.2565278788005807
aF0.7666882105339582
aF0.9532581697135523
aF0.5250886884495667
aF0.22800757991820852
aF0.5399489776615707
aF0.7044560628751725
aF0.661142347093354
aF0.6463041166699078
aF0.3368973551032637
aF0.8625635319496862
atp3093
tp3094
a(g6
(S'\x00\x08 \x00\x00\x00'
p3095
tp3096
Rp3097
g20
(lp3098
F0.5345990252540513
aF0.8711686530793257
aF0.17775073337139846
aF0.6292728503658312
aF0.8451388687170963
aF0.26728314909967077
aF0.15246963019463122
aF0.43298680000269674
aF0.07924793194731972
aF0.5911895518661866
aF0.7092148904547394
aF0.10700809392969635
aF0.30413979362474874
aF0.7524677916364436
aF0.4548769295062268
aF0.14290649253020304
aF0.5284931109045176
aF0.15895038257357286
aF0.6356207515954602
aF0.39012113405904236
aF0.5609962493262628
aF0.19592099516286154
aF0.9470350853097277
atp3099
a(g6
(S'\x00\x08$\x00\x00\x00'
p3100
tp3101
Rp3102
g10
((lp3103
g12
ag13
a(lp3104
F0.7642210901916088
aF0.4195546142513473
aF0.4046901034926629
aF0.4346518489730531
aF0.34433683871732257
aF0.5907873204215912
aF0.8894324157548212
aF0.002826056941267585
aF0.9114351849634459
aF0.9140025258608754
aF0.7072957969854907
aF0.15666950723527928
aF0.5080053821568085
aF0.47314409044088757
aF0.8118687547834293
aF0.6254031039897091
aF0.35115393547077545
aF0.7419289351000344
aF0.03753616741147037
aF0.029335195852105533
aF0.05334134316240602
aF0.4179189093210154
aF0.32814082471493455
atp3105
tp3106
a(g6
(S'\x00\x08%\x00\x00\x00'
p3107
tp3108
Rp3109
g20
(lp3110
F0.3806349393037579
aF0.5122807197830976
aF0.8293058929062158
aF0.11037467613975138
aF0.06864882690222884
aF0.8643766913408758
aF0.8560866006119724
aF0.06758603447949263
aF0.6068012245140152
aF0.917303652581272
aF0.2929781487452421
aF0.897250883424101
aF0.6324563840045251
aF0.25092714706262453
aF0.5253810935154511
aF0.5238067516098401
aF0.9234510555189982
aF0.9193726320003813
aF0.25171124448872784
aF0.18114959234459482
aF0.3208597357197729
aF0.04936481139993054
aF0.11029646271392368
atp3111
a(g6
(S'\x00\x08)\x00\x00\x00'
p3112
tp3113
Rp3114
g10
((lp3115
g12
ag13
a(lp3116
F0.7803592610736373
aF0.48497714612812426
aF0.5627884349711537
aF0.5231284030820285
aF0.9111742535122476
aF0.018842028479654993
aF0.16534743075660985
aF0.5202220357915401
aF0.010850606617874625
aF0.997197888242185
aF0.22210490447309394
aF0.5534428276575887
aF0.028013620143243934
aF0.21155485479772096
aF0.744569814269642
aF0.46961472054722264
aF0.6497731782549098
aF0.11268532153558519
aF0.9014125703430382
aF0.4379504729620869
aF0.8427856285410976
aF0.9897856867110327
aF0.03085724019892544
atp3117
tp3118
a(g6
(S'\x00\x08*\x00\x00\x00'
p3119
tp3120
Rp3121
g20
(lp3122
F0.43400302669971835
aF0.8181729068193213
aF0.284185871149759
aF0.5104533493303771
aF0.6553258493742702
aF0.540631140408448
aF0.6452062236352534
aF0.0505473811978403
aF0.512715970085234
aF0.8180157224403061
aF0.8905703637049531
aF0.8959757010989724
aF0.6485141799870897
aF0.33648554137785214
aF0.5517918829291972
aF0.054519795577848584
aF0.5354934787234961
aF0.24442535674830324
aF0.9438016757334012
aF0.822518255141626
aF0.3920816183332321
aF0.3094553422375864
aF0.8365469228105455
atp3123
a(g6
(S'\x00\x08.\x00\x00\x00'
p3124
tp3125
Rp3126
g10
((lp3127
g12
ag13
a(lp3128
F0.523168927461992
aF0.9926845715158628
aF0.7232423335008592
aF0.5165210985860968
aF0.7068438151474304
aF0.8028947215768946
aF0.49180493107044876
aF0.018764303809517657
aF0.9461179556832761
aF0.047821342982403925
aF0.4062504044902292
aF0.8460584136999151
aF0.7098720960615424
aF0.025680790784862406
aF0.5451476293377316
aF0.24670738362385092
aF0.9205480783593577
aF0.6741469673722597
aF0.9211881580492958
aF0.14657296347189608
aF0.4546157227721208
aF0.12276110190119882
aF0.24769378182591129
atp3129
tp3130
a(g6
(S'\x00\x08/\x00\x00\x00'
p3131
tp3132
Rp3133
g20
(lp3134
F0.593665939356691
aF0.654661579844318
aF0.9432837627168837
aF0.1550700000532198
aF0.11185204647953928
aF0.08968921825390408
aF0.021431476676863404
aF0.6372189024088418
aF0.5433505802042254
aF0.6730798402698025
aF0.8492537556233853
aF0.7695717748037607
aF0.3987403780641753
aF0.2743634057767468
aF0.10322462338835692
aF0.9443583626198133
aF0.9414680980732557
aF0.9503396819087955
aF0.31093868433518945
aF0.40845886811669996
aF0.45846147400581094
aF0.7475376195586001
aF0.014817773113697252
atp3135
a(g6
(S'\x00\x083\x00\x00\x00'
p3136
tp3137
Rp3138
g10
((lp3139
g12
ag13
a(lp3140
F0.07795570109194294
aF0.6362743759162584
aF0.22464860094535632
aF0.42107655986915393
aF0.5778935787767171
aF0.822825526930317
aF0.033829600579111996
aF0.1737277998213046
aF0.8089301565630165
aF0.5442378872077106
aF0.5883882405723858
aF0.8889622898332324
aF0.7219896819414611
aF0.3703678119373791
aF0.2445344101562137
aF0.0935296613430101
aF0.006912629957015359
aF0.9499261196170798
aF0.20411311945129296
aF0.2665738305725528
aF0.7073011902733872
aF0.5946096341466948
aF0.16776212710438743
atp3141
tp3142
a(g6
(S'\x00\x084\x00\x00\x00'
p3143
tp3144
Rp3145
g20
(lp3146
F0.1439376125100864
aF0.2980712724467397
aF0.10187146477832898
aF0.22704885182327716
aF0.24927082297178216
aF0.9018631215989232
aF0.9708876016164418
aF0.32291183997369455
aF0.5202650295459683
aF0.15875514821716585
aF0.7568163543378822
aF0.4336695438615418
aF0.25860862222201975
aF0.21406649809178102
aF0.8026981179159421
aF0.5874988706935885
aF0.3800272207038162
aF0.9488486604277651
aF0.921004205215234
aF0.7495723928329023
aF0.8258767493514296
aF0.9098475199878739
aF0.07354564253820317
atp3147
a(g6
(S'\x00\x088\x00\x00\x00'
p3148
tp3149
Rp3150
g10
((lp3151
g12
ag13
a(lp3152
F0.5882106491481485
aF0.6501169938157192
aF0.9337459762621485
aF0.27288664397150497
aF0.7101358587705148
aF0.8806650829584608
aF0.3113482414755737
aF0.987271156154029
aF0.5692527616003781
aF0.63376437230854
aF0.7469351751003117
aF0.7349450721709916
aF0.899789722306574
aF0.7800980575282702
aF0.19934174767975488
aF0.5527601226857466
aF0.799008277534131
aF0.8325911524832409
aF0.13976251405049456
aF0.8231459148353591
aF0.3953367511321553
aF0.3993533871887359
aF0.5112619314245249
atp3153
tp3154
a(g6
(S'\x00\x089\x00\x00\x00'
p3155
tp3156
Rp3157
g20
(lp3158
F0.45748171567248097
aF0.5478682740736149
aF0.18186170096260745
aF0.06509688527958735
aF0.9050122716764853
aF0.12034512726019764
aF0.632129750350375
aF0.4520405059479816
aF0.9897129132137622
aF0.8739433706348755
aF0.10713991685558788
aF0.9283496785816093
aF0.7540659635900674
aF0.26798177668602885
aF0.9234295593264431
aF0.3816155331893737
aF0.44633736765568
aF0.4133931299113306
aF0.22151515900485563
aF0.35393685164924416
aF0.3066838562265293
aF0.3167498763823483
aF0.3142092499565372
atp3159
a(g6
(S'\x00\t\x01\x00\x00\x00'
p3160
tp3161
Rp3162
g10
((lp3163
g12
ag13
a(lp3164
F0.7509690696786246
aF0.6947042495939383
aF0.6527467549231413
aF0.7258817570918297
aF0.1589232458227492
aF0.5575496164723006
aF0.7698019708519248
aF0.9088524216869039
aF0.03827675656916196
aF0.9263993334563266
aF0.9904428661098875
aF0.9322106294754273
aF0.6849988963562674
aF0.494016997641087
aF0.8982823343075477
aF0.7360290526680047
aF0.8894133725325231
aF0.49466389909569897
aF0.6705744671642702
aF0.4550879791796191
aF0.06743543435967769
aF0.3154493377309092
aF0.42146163660892555
atp3165
tp3166
a(g6
(S'\x00\t\x02\x00\x00\x00'
p3167
tp3168
Rp3169
g20
(lp3170
F0.9515348487964346
aF0.8245641724894969
aF0.4305743844284654
aF0.26828189533254054
aF0.732333389375225
aF0.990334908684422
aF0.22219278599002523
aF0.5254795334236455
aF0.7929563124601092
aF0.618328249347726
aF0.020016731597667592
aF0.46788282977497886
aF0.9562100716350491
aF0.717300819953389
aF0.1668600940420535
aF0.9627038656871467
aF0.7801381937288099
aF0.23441981027968284
aF0.35241335705607224
aF0.5478710505932344
aF0.40362286390873536
aF0.4170562660512436
aF0.3114134471018071
atp3171
a(g6
(S'\x00\t\x06\x00\x00\x00'
p3172
tp3173
Rp3174
g10
((lp3175
g12
ag13
a(lp3176
F0.14832541487713202
aF0.03753965703494855
aF0.5252885659518142
aF0.36400377554279206
aF0.6985236979168182
aF0.022095712024120973
aF0.8609881993106847
aF0.17485858336347881
aF0.009230626355552163
aF0.8508661116778742
aF0.0021725456734488224
aF0.41448420405083364
aF0.5066935183223826
aF0.08878852048767638
aF0.5933407782135627
aF0.2885286627355905
aF0.5593927143822859
aF0.8892710221886669
aF0.776147067529903
aF0.5371583524944545
aF0.7288511821994001
aF0.10431675984577615
aF0.6665382611344164
atp3177
tp3178
a(g6
(S'\x00\t\x07\x00\x00\x00'
p3179
tp3180
Rp3181
g20
(lp3182
F0.7693206383776853
aF0.6568766604604874
aF0.42114776374194474
aF0.5649406928906011
aF0.9095447376529361
aF0.8684835535626912
aF0.8302973662018615
aF0.24314327297346638
aF0.970029445337271
aF0.2399851238427967
aF0.2872086979456854
aF0.24597415046064153
aF0.6212193989548731
aF0.2543240681281528
aF0.35385166565938986
aF0.4578943583523717
aF0.44499638378193673
aF0.5494496703336305
aF0.11119452368581983
aF0.6412179572811867
aF0.16247045511386515
aF0.7342637818286353
aF0.9946365241435059
atp3183
a(g6
(S'\x00\t\x0b\x00\x00\x00'
p3184
tp3185
Rp3186
g10
((lp3187
g12
ag13
a(lp3188
F0.76428835758015
aF0.7103008203502738
aF0.8475613227508249
aF0.23972229356315977
aF0.6011587682212747
aF0.5831084362565351
aF0.5458075772546243
aF0.3521586073210303
aF0.9201350846188036
aF0.6997041214738681
aF0.9774624565872612
aF0.30505639418315944
aF0.5787643629311803
aF0.5700131650097506
aF0.2638767129265772
aF0.528256814577054
aF0.7815310902504228
aF0.745928355134295
aF0.5310422441102192
aF0.6212432854490207
aF0.09765927366429472
aF0.31256881289638117
aF0.8415178338761812
atp3189
tp3190
a(g6
(S'\x00\t\x0c\x00\x00\x00'
p3191
tp3192
Rp3193
g20
(lp3194
F0.6478173003001126
aF0.29828666410991256
aF0.23837187597159726
aF0.20269678438095573
aF0.20160923755102178
aF0.3963720738891323
aF0.8396073471589977
aF0.2404384645480503
aF0.8004177205242347
aF0.9806747318303772
aF0.1061369013777852
aF0.6710143091078263
aF0.07758512121250616
aF0.9851163986215415
aF0.4250621030272016
aF0.3152428686799913
aF0.45934054176635564
aF0.7475848742884192
aF0.09233258506515041
aF0.5317572029604168
aF0.6676240087523905
aF0.2851624049802959
aF0.7500702199285854
atp3195
a(g6
(S'\x00\t\x10\x00\x00\x00'
p3196
tp3197
Rp3198
g10
((lp3199
g12
ag13
a(lp3200
F0.887467011368967
aF0.6701385833230677
aF0.46464581635729163
aF0.3955645912904312
aF0.8152421371432881
aF0.31810822219195867
aF0.43870240404915284
aF0.25638351539757753
aF0.6242639057950478
aF0.20208352785075046
aF0.9014356530179641
aF0.18047513420321515
aF0.3929477834721766
aF0.17177774460880202
aF0.4622881644680532
aF0.2964265623346961
aF0.4356601492307014
aF0.6537937197011439
aF0.6595465170908196
aF0.15978682625953755
aF0.5694017784383604
aF0.9151592624285906
aF0.8180205738291868
atp3201
tp3202
a(g6
(S'\x00\t\x11\x00\x00\x00'
p3203
tp3204
Rp3205
g20
(lp3206
F0.3036693737960189
aF0.3920884084310855
aF0.40725441954577846
aF0.3093508925439561
aF0.8378863171046842
aF0.07922989705114714
aF0.9760835024284534
aF0.48374140211997385
aF0.36679334939534125
aF0.9686146939186956
aF0.7171864920609639
aF0.4218363863384287
aF0.3286290093876333
aF0.20880859080650138
aF0.8838618336337647
aF0.5931378966191483
aF0.2886755587604968
aF0.7899883241607123
aF0.5033583415028947
aF0.3803783808496962
aF0.832425494163259
aF0.8640238192099297
aF0.13676645284108369
atp3207
a(g6
(S'\x00\t\x15\x00\x00\x00'
p3208
tp3209
Rp3210
g10
((lp3211
g12
ag13
a(lp3212
F0.5803178322331608
aF0.7668820535875379
aF0.1087860918091097
aF0.7169328037442219
aF0.9889545877061036
aF0.7108716596525017
aF0.31755554690554233
aF0.29827446522175094
aF0.5373804952941078
aF0.3039502904554531
aF0.9933143667302414
aF0.9378340825450635
aF0.8213799833227664
aF0.26544524969944494
aF0.1094031399797899
aF0.6910822244370908
aF0.5721963703394639
aF0.6001979490072856
aF0.3792794955496259
aF0.31917472672626457
aF0.31489193187003817
aF0.5979426221643717
aF0.6914843936126712
atp3213
tp3214
a(g6
(S'\x00\t\x16\x00\x00\x00'
p3215
tp3216
Rp3217
g20
(lp3218
F0.5912149113558711
aF0.741240536886535
aF0.7162709229077486
aF0.8926114247595289
aF0.7527414454084371
aF0.4376442449018533
aF0.6902421310325754
aF0.4536149756071014
aF0.04011398858142856
aF0.791138249974716
aF0.8713474823785
aF0.33916860609293376
aF0.7946618926429065
aF0.3552601884199367
aF0.5943779017208722
aF0.8895077686435918
aF0.9648889377131775
aF0.6155639354921618
aF0.7645976350582432
aF0.2751688073301697
aF0.5544361963872383
aF0.24741200089579451
aF0.8237604386512466
atp3219
asg167
(dp3220
I1
(lp3221
(lp3222
S'101,180,232,181,232'
p3223
aS'121,136,10,191,211'
p3224
aa(lp3225
S'113,174,226,174,226'
p3226
aS'126,172,237,172,237'
p3227
aS'101,181,232,181,232'
p3228
aasI2
(lp3229
(lp3230
S'14,42,341,53,195'
p3231
aS'3,49,376,19,250'
p3232
aa(lp3233
S'19,67,188,67,188'
p3234
aasI3
(lp3235
(lp3236
S'70,120,23,171,145'
p3237
aS'88,128,10,168,159'
p3238
aS'107,106,23,168,161'
p3239
aS'90,214,90,179,146'
p3240
aS'118,280,227,172,161'
p3241
aS'39,112,321,182,166'
p3242
aS'66,64,316,162,171'
p3243
aS'63,32,138,165,164'
p3244
aS'95,116,323,116,323'
p3245
aa(lp3246
S'68,172,154,172,154'
p3247
aasI4
(lp3248
(lp3249
S'38,71,121,61,328'
p3250
aS'2,97,139,100,346'
p3251
aS'22,10,167,58,314'
p3252
aa(lp3253
S'16,65,335,65,335'
p3254
aasI5
(lp3255
(lp3256
S'83,235,333,118,366'
p3257
aS'118,248,348,118,353'
p3258
aS'129,183,335,121,340'
p3259
aS'123,194,270,102,332'
p3260
aS'115,120,10,109,339'
p3261
aa(lp3262
S'72,116,332,116,332'
p3263
aasI6
(lp3264
(lp3265
S'121,120,216,91,68'
p3266
aS'7,55,215,45,212'
p3267
aS'95,95,193,98,77'
p3268
aS'59,183,112,101,65'
p3269
aS'73,57,217,57,217'
p3270
aa(lp3271
S'82,84,56,84,56'
p3272
aS'108,83,54,83,54'
p3273
aasI7
(lp3274
(lp3275
S'121,87,158,74,81'
p3276
aS'74,17,150,54,60'
p3277
aS'73,21,193,84,73'
p3278
aa(lp3279
S'101,60,50,60,50'
p3280
aasI8
(lp3281
(lp3282
S'73,15,207,31,91'
p3283
aS'61,122,38,48,62'
p3284
aS'83,117,37,61,53'
p3285
aa(lp3286
S'86,44,53,44,53'
p3287
aasI9
(lp3288
(lp3289
S'73,28,248,34,100'
p3290
aa(lp3291
S'103,25,48,25,48'
p3292
aS'90,39,48,39,48'
p3293
aS'111,25,57,25,57'
p3294
aS'77,32,57,32,57'
p3295
aS'105,38,55,38,55'
p3296
aS'122,38,55,38,55'
p3297
aS'128,34,59,34,59'
p3298
aS'127,42,52,42,52'
p3299
aS'64,42,60,42,60'
p3300
aS'75,44,61,44,61'
p3301
aS'113,41,62,41,62'
p3302
aS'115,40,69,40,69'
p3303
aasI10
(lp3304
(lp3305
S'73,28,248,21,89'
p3306
aa(lp3307
S'103,25,48,25,48'
p3308
aS'77,32,57,32,57'
p3309
aS'111,25,57,25,57'
p3310
aS'64,42,60,42,60'
p3311
aS'105,38,55,38,55'
p3312
aS'122,38,55,38,55'
p3313
aS'127,42,52,42,52'
p3314
aS'128,34,59,34,59'
p3315
aassg652
(lp3316
(g654
(g658
S'LN\xb8\xe9\x0b\xb5\xad?'
p3317
tp3318
Rp3319
g654
(g658
S'\xe6\xdd\x1e5\xf3\xf3\xbc?'
p3320
tp3321
Rp3322
tp3323
a(g654
(g658
S'\xbf!\xc1\x99,\xd8\xb8?'
p3324
tp3325
Rp3326
g654
(g658
S"\x9b\xd9\xa7'\x98\xf0\xb6?"
p3327
tp3328
Rp3329
tp3330
a(g654
(g658
S'\x1d\x7f\x9d\x87\xddG\xb9?'
p3331
tp3332
Rp3333
g654
(g658
S"\xb6\x00\xbe\xd7'\xc4\xa9?"
p3334
tp3335
Rp3336
tp3337
a(g654
(g658
S'\xa2\x1as\x94|>\xbd?'
p3338
tp3339
Rp3340
g654
(g658
S'\xceED\xcfPu\x8d?'
p3341
tp3342
Rp3343
tp3344
a(g654
(g658
S'.\xf6$U\x96\xaf\xac?'
p3345
tp3346
Rp3347
g654
(g658
S'H[\xaboS\x98\xac\xbf'
p3348
tp3349
Rp3350
tp3351
a(g654
(g658
S'I\xb4<\xb4\x95i\x95\xbf'
p3352
tp3353
Rp3354
g654
(g658
S'\x9e\xf54\x12~.\xc0\xbf'
p3355
tp3356
Rp3357
tp3358
a(g654
(g658
S'5\x8d\x9a1\xf7\x92\xa1\xbf'
p3359
tp3360
Rp3361
g654
(g658
S'\xf10\xb9x\x08Y\xc6\xbf'
p3362
tp3363
Rp3364
tp3365
a(g654
(g658
S'\xfe\x80\x8c\xf4\x19\xae\x9f\xbf'
p3366
tp3367
Rp3368
g654
(g658
S'\x9b;s\xd6t\xe0\xcc\xbf'
p3369
tp3370
Rp3371
tp3372
a(g654
(g658
S'\xac\x0b\xc0\x04l\xb5\xb3\xbf'
p3373
tp3374
Rp3375
g654
(g658
S'\xae\x95\x07\xb6K\xb3\xd3\xbf'
p3376
tp3377
Rp3378
tp3379
a(g654
(g658
S'\xfe\x80\x8c\xf4\x19\xae\x9f\xbf'
p3380
tp3381
Rp3382
g654
(g658
S'\x9b;s\xd6t\xe0\xcc\xbf'
p3383
tp3384
Rp3385
tp3386
a(g654
(g658
S'\x98s\xd3";\\w?'
p3387
tp3388
Rp3389
g654
(g658
S'=n\xf8\x11\xe4\x1f\xd4\xbf'
p3390
tp3391
Rp3392
tp3393
a(g654
(g658
S'\xfe\x80\x8c\xf4\x19\xae\x9f\xbf'
p3394
tp3395
Rp3396
g654
(g658
S'\x9b;s\xd6t\xe0\xcc\xbf'
p3397
tp3398
Rp3399
tp3400
asg752
(lp3401
g654
(g658
S'\xe2\xe9\xd7\xfb\xb3C\xed?'
p3402
tp3403
Rp3404
ag654
(g658
S';\x9a\xddVdI\xed?'
p3405
tp3406
Rp3407
ag654
(g658
S'\xf5[\x8d*\xf0d\xec?'
p3408
tp3409
Rp3410
ag654
(g658
S'ZgL\x82\x16\xee\xec?'
p3411
tp3412
Rp3413
ag654
(g658
S'\x12\x1a\x08,\xe4s\xed?'
p3414
tp3415
Rp3416
ag654
(g658
S'\xdd\x8b-\xeapc\xee?'
p3417
tp3418
Rp3419
ag654
(g658
S'\r\xbc]\x1a\xa1\x93\xee?'
p3420
tp3421
Rp3422
ag654
(g658
S'\xd8\x8b$\xf3U\x90\xee?'
p3423
tp3424
Rp3425
ag654
(g658
S'\x02\x06\xfd\x0e\xeb2\xee?'
p3426
tp3427
Rp3428
ag654
(g658
S' \xd3k:\x9d\xd7\xed?'
p3429
tp3430
Rp3431
ag654
(g658
S'\x02\x06\xfd\x0e\xeb2\xee?'
p3432
tp3433
Rp3434
ag654
(g658
S'x\x80n\x92J\xda\xed?'
p3435
tp3436
Rp3437
ag654
(g658
S'\x02\x06\xfd\x0e\xeb2\xee?'
p3438
tp3439
Rp3440
asg796
(dp3441
g798
g799
sg800
g801
sg806
g807
sg808
(lp3442
(lp3443
asg811
g6
(S'\x00\x00\x00\x00\x00\x00'
p3444
tp3445
Rp3446
sg815
g816
ssg824
(lp3447
g826
a(lp3448
g865
ag839
ag829
ag828
ag860
aa(lp3449
g860
ag829
ag833
ag858
ag802
aa(lp3450
g829
ag832
ag868
ag860
ag833
aa(lp3451
g829
ag832
ag860
ag802
ag833
aa(lp3452
g832
ag839
ag836
ag829
ag805
aa(lp3453
g832
ag839
ag829
ag836
ag857
aa(lp3454
g832
ag829
ag839
ag836
ag833
aa(lp3455
g832
ag839
ag829
ag836
ag833
aa(lp3456
g832
ag829
ag839
ag836
ag833
aa(lp3457
g832
ag839
ag829
ag836
ag833
aa(lp3458
g832
ag836
ag839
ag829
ag833
aa(lp3459
g832
ag839
ag829
ag836
ag833
aasg847
(g654
(g658
S'\xb8p\x8a\xb8f\xa0\xb2?'
p3460
tp3461
Rp3462
g654
(g658
S'\xc0\x8fE\x1b \xe8\xbc?'
p3463
tp3464
Rp3465
tp3466
sg855
g856
ssI9
(dp3467
g2
(lp3468
I0
aI0
aI0
aI0
asg4
(lp3469
(g6
(S'\x00\x08\x1a\x00\x00\x00'
p3470
tp3471
Rp3472
g10
((lp3473
g12
ag13
a(lp3474
F0.2664118295899235
aF0.8122652230939013
aF0.47174357136156686
aF0.12063241982553075
aF0.3365491456195785
aF0.7649058947156091
aF0.09796997562032517
aF0.44553871073699347
aF0.9547730139161873
aF0.8618663537941978
aF0.7231274332096032
aF0.8564398877504422
aF0.6244527912460803
aF0.34301611556387923
aF0.7839283469758872
aF0.602099132410977
aF0.33928594633619846
aF0.22932114477710785
aF0.37011664184228055
aF0.5443503486244616
aF0.6371227651403992
aF0.4392347130974116
aF0.11005916540733607
atp3475
tp3476
a(g6
(S'\x00\x08\x1b\x00\x00\x00'
p3477
tp3478
Rp3479
g20
(lp3480
F0.49895369081360097
aF0.500286896220166
aF0.44857724595682014
aF0.05795127301034375
aF0.25490499825367663
aF0.10297890244351948
aF0.10391573843073232
aF0.6293111950935156
aF0.8392050745482488
aF0.5772620860719133
aF0.01074947248717295
aF0.5010670647342909
aF0.9994810664878121
aF0.34544922971380965
aF0.3969986332663882
aF0.1213049868677728
aF0.8830344250972729
aF0.5963277175333104
aF0.352248783261906
aF0.5368507431856728
aF0.10397494282871966
aF0.7232462726977811
aF0.44156537324781664
atp3481
a(g6
(S'\x00\x08\x1f\x00\x00\x00'
p3482
tp3483
Rp3484
g10
((lp3485
g12
ag13
a(lp3486
F0.3742266058462175
aF0.6294141320954757
aF0.012470696621251665
aF0.18006730101376478
aF0.37915742166403066
aF0.7831720769003491
aF0.32875856815272675
aF0.030580543758581213
aF0.9174481895174175
aF0.9477228174850328
aF0.3337627794957473
aF0.5370397465735086
aF0.16158407774144268
aF0.6926388180860557
aF0.14235588832653845
aF0.6663962343202889
aF0.16319104795508088
aF0.10255566449591635
aF0.8717619117404996
aF0.999518875332155
aF0.13001281336714643
aF0.9758884730468558
aF0.7206037881186064
atp3487
tp3488
a(g6
(S'\x00\x08 \x00\x00\x00'
p3489
tp3490
Rp3491
g20
(lp3492
F0.4819244486289479
aF0.7732817087600657
aF0.7162622257094365
aF0.7451848600620973
aF0.5244626890112538
aF0.09376204562282087
aF0.044092529574309314
aF0.7709956771551189
aF0.5870009603075121
aF0.6547443004130205
aF0.07893108555938555
aF0.9924578233391018
aF0.3049070404909633
aF0.6242354715458435
aF0.7337108040730653
aF0.4699798899211951
aF0.747643686124617
aF0.6255156276043395
aF0.3874252715361801
aF0.4624013362876368
aF0.6598214465815647
aF0.4839084383549037
aF0.5021808778727861
atp3493
a(g6
(S'\x00\x08$\x00\x00\x00'
p3494
tp3495
Rp3496
g10
((lp3497
g12
ag13
a(lp3498
F0.36184460533846563
aF0.017252871619214627
aF0.42053363174627245
aF0.4425416889172069
aF0.08975432562180596
aF0.11154403073276409
aF0.3222722439350659
aF0.46824911428098304
aF0.26613634608218995
aF0.32929941745545166
aF0.49851415248285946
aF0.7263271419235167
aF0.6401654269034507
aF0.31279984595515364
aF0.5987675351260764
aF0.009021120610835043
aF0.5125382625131416
aF0.18476763546091757
aF0.6714028937787818
aF0.3792286053561813
aF0.2770131995809231
aF0.02437423045152809
aF0.8531467598916964
atp3499
tp3500
a(g6
(S'\x00\x08%\x00\x00\x00'
p3501
tp3502
Rp3503
g20
(lp3504
F0.7824206790362536
aF0.30608567415616406
aF0.22357027569166732
aF0.8743235204633236
aF0.1418618140311716
aF0.42554581221678767
aF0.03960556071432708
aF0.12419724666016607
aF0.8166061660716378
aF0.5037418903118124
aF0.4847022570220466
aF0.4760999513179218
aF0.7505478199210902
aF0.1718662068310297
aF0.1969039634779305
aF0.7336552708640378
aF0.5274255085865994
aF0.24824487052781963
aF0.5161126612397933
aF0.9489643222300663
aF0.6532715049877322
aF0.022220788433657823
aF0.5041985670570933
atp3505
a(g6
(S'\x00\x08)\x00\x00\x00'
p3506
tp3507
Rp3508
g10
((lp3509
g12
ag13
a(lp3510
F0.42732665935692016
aF0.35156663420614975
aF0.5840125292250566
aF0.13639193174483577
aF0.4694886511576962
aF0.7556277401429774
aF0.5216031685837463
aF0.7650586899594165
aF0.9064302049592278
aF0.5214774841705964
aF0.7009701729096918
aF0.23072429437933606
aF0.5852707119439977
aF0.6126753171054933
aF0.8686013554260761
aF0.8407594311639832
aF0.7618620011139328
aF0.5366943016587098
aF0.6359067769071682
aF0.49239326192613464
aF0.6703298780255461
aF0.3531365620129625
aF0.43546543895717904
atp3511
tp3512
a(g6
(S'\x00\x08*\x00\x00\x00'
p3513
tp3514
Rp3515
g20
(lp3516
F0.030184004732204395
aF0.5223153451930698
aF0.6704505550626397
aF0.5737551038701819
aF0.13357682766957735
aF0.38161722587000946
aF0.6946710920453472
aF0.18144543850839234
aF0.1052534303416186
aF0.002040314042537461
aF0.928091222199904
aF0.025406373065627097
aF0.6326476321224109
aF0.4587028641715085
aF0.8328915463572822
aF0.3850815324128962
aF0.24739424725731807
aF0.19496107845861343
aF0.2735872708287622
aF0.9872298005462906
aF0.3461623309451294
aF0.9085549191588584
aF0.5227911128616484
atp3517
asg167
(dp3518
I1
(lp3519
(lp3520
S'69,126,120,184,155'
p3521
aS'88,183,369,187,159'
p3522
aS'107,179,376,201,175'
p3523
aS'70,196,351,170,164'
p3524
aS'119,160,361,192,194'
p3525
aS'79,124,343,185,174'
p3526
aa(lp3527
S'69,184,155,196,156'
p3528
aS'118,300,119,218,152'
p3529
aS'59,268,41,205,143'
p3530
aS'95,120,87,190,137'
p3531
aS'121,137,10,176,144'
p3532
aS'66,73,129,171,134'
p3533
aS'73,76,133,156,139'
p3534
aasI2
(lp3535
(lp3536
S'110,162,162,169,164'
p3537
aS'107,134,10,158,168'
p3538
aS'88,145,18,197,177'
p3539
aS'96,135,45,160,134'
p3540
aS'70,146,47,173,143'
p3541
aS'106,133,45,198,162'
p3542
aS'79,109,52,184,176'
p3543
aS'67,100,63,198,196'
p3544
aS'115,161,151,158,151'
p3545
aS'119,136,35,177,211'
p3546
aS'71,116,201,179,151'
p3547
aS'48,54,179,146,195'
p3548
aS'54,80,183,147,207'
p3549
aS'95,108,171,204,185'
p3550
aS'69,99,162,192,212'
p3551
aS'98,103,153,167,215'
p3552
aS'74,62,128,209,205'
p3553
aS'103,155,41,167,122'
p3554
aS'114,167,57,142,138'
p3555
aS'105,192,53,132,190'
p3556
aS'111,169,63,167,155'
p3557
aS'97,98,53,185,175'
p3558
aS'93,97,70,151,140'
p3559
aS'63,72,104,165,182'
p3560
aS'82,111,54,111,54'
p3561
aS'123,186,161,186,161'
p3562
aS'128,184,142,184,142'
p3563
aS'121,163,196,163,196'
p3564
aS'73,54,174,54,174'
p3565
aS'66,80,182,80,182'
p3566
aa(lp3567
S'83,259,133,174,184'
p3568
aS'59,255,211,181,194'
p3569
aS'118,307,190,150,181'
p3570
aasI3
(lp3571
(lp3572
S'148,215,98,215,98'
p3573
aS'174,216,97,216,97'
p3574
aS'169,220,105,220,105'
p3575
aS'152,217,112,217,112'
p3576
aS'177,194,102,194,102'
p3577
aS'167,208,115,208,115'
p3578
aS'165,230,92,230,92'
p3579
aS'132,241,96,241,96'
p3580
aa(lp3581
S'158,62,10,241,109'
p3582
aS'159,132,19,229,116'
p3583
aS'164,160,38,255,100'
p3584
aS'175,162,37,214,123'
p3585
aS'151,191,18,229,99'
p3586
aS'173,178,35,210,101'
p3587
aS'156,187,34,197,122'
p3588
aS'153,176,69,248,85'
p3589
aS'171,229,37,233,79'
p3590
aS'141,245,223,248,118'
p3591
aS'161,242,188,220,134'
p3592
aS'128,209,140,209,140'
p3593
aS'130,305,213,230,145'
p3594
aS'162,304,182,249,130'
p3595
aS'142,296,192,209,147'
p3596
aS'140,286,182,186,118'
p3597
aS'143,269,177,219,151'
p3598
aS'145,285,184,260,114'
p3599
aS'131,279,172,244,157'
p3600
aS'139,283,169,180,133'
p3601
aS'133,312,182,265,85'
p3602
aasI4
(lp3603
(lp3604
S'18,10,185,178,282'
p3605
aS'3,17,202,154,301'
p3606
aS'14,20,212,149,284'
p3607
aS'10,62,226,151,333'
p3608
aS'5,72,220,193,277'
p3609
aS'43,259,290,165,275'
p3610
aS'4,111,289,111,289'
p3611
aS'25,255,368,139,310'
p3612
aS'21,246,320,131,325'
p3613
aS'24,212,362,164,330'
p3614
aS'44,235,355,187,321'
p3615
aa(lp3616
S'48,160,289,160,289'
p3617
aS'2,168,294,168,294'
p3618
aS'50,168,291,168,291'
p3619
aS'12,122,278,122,278'
p3620
aS'58,128,275,128,275'
p3621
aS'16,124,269,124,269'
p3622
aS'15,133,274,133,274'
p3623
aS'56,133,274,133,274'
p3624
aS'46,141,299,141,299'
p3625
aS'30,133,288,133,288'
p3626
aS'26,167,302,167,302'
p3627
aS'29,162,307,162,307'
p3628
aS'54,177,300,177,300'
p3629
aS'17,165,293,165,293'
p3630
aassg652
(lp3631
(g654
(g658
S'x\x82\x19\x8f\xfa\xcf\x9c?'
p3632
tp3633
Rp3634
g654
(g658
S'\x95\xa8\x90S\xdbr\xb5?'
p3635
tp3636
Rp3637
tp3638
a(g654
(g658
S'\xe2e<9\xf9\xed\xae\xbf'
p3639
tp3640
Rp3641
g654
(g658
S'\x94~\xde\x9f\xf4\xf3\xa4?'
p3642
tp3643
Rp3644
tp3645
a(g654
(g658
S'v\xc3\xf8\xc5{\x8b\xb6\xbf'
p3646
tp3647
Rp3648
g654
(g658
S'\xde-\x8fC\xbc\xa9\x9b?'
p3649
tp3650
Rp3651
tp3652
a(g654
(g658
S'\xc3\x9e\xf9\xb5Nz\xb7\xbf'
p3653
tp3654
Rp3655
g654
(g658
S'\x99\xcc\x81\x93\xf3\xbe\x80\xbf'
p3656
tp3657
Rp3658
tp3659
asg752
(lp3660
g654
(g658
S'\xe2\xe9\xd7\xfb\xb3C\xed?'
p3661
tp3662
Rp3663
ag654
(g658
S';\x9d\xd7bLy\xed?'
p3664
tp3665
Rp3666
ag654
(g658
S'\xc8\x83\n\xfd\x17\xe2\xed?'
p3667
tp3668
Rp3669
ag654
(g658
S'N\x06\x96v\xb57\xee?'
p3670
tp3671
Rp3672
ag654
(g658
S'\xb0\x0eR\xcb\xd8\xbd\xee?'
p3673
tp3674
Rp3675
asg796
(dp3676
g798
g799
sg800
g801
sg806
g807
sg808
(lp3677
(lp3678
asg811
g6
(S'\x00\x00\x00\x00\x00\x00'
p3679
tp3680
Rp3681
sg815
g816
ssg824
(lp3682
g826
a(lp3683
g832
ag833
ag839
ag829
ag863
aa(lp3684
g832
ag839
ag833
ag829
ag868
aa(lp3685
g839
ag833
ag832
ag829
ag836
aa(lp3686
g833
ag839
ag832
ag829
ag836
aasg847
(g654
(g658
S'\xb8p\x8a\xb8f\xa0\xb2?'
p3687
tp3688
Rp3689
g654
(g658
S'\xc0\x8fE\x1b \xe8\xbc?'
p3690
tp3691
Rp3692
tp3693
sg855
g856
ssI10
(dp3694
g2
(lp3695
I0
aI0
aI0
aI0
aI0
aI0
aI0
aI0
aI0
aI0
asg4
(lp3696
(g6
(S'\x00\x08\x1a\x00\x00\x00'
p3697
tp3698
Rp3699
g10
((lp3700
g12
ag13
a(lp3701
F0.12033544127249385
aF0.7653784063864305
aF0.11845347916022364
aF0.13293009732768302
aF0.3115473234993106
aF0.5923115124435078
aF0.6750036871306054
aF0.64469187069931
aF0.17263865423587188
aF0.6954671502435273
aF0.2520231320196761
aF0.05094430415153439
aF0.10024221265014799
aF0.7483622083390188
aF0.5473417970631093
aF0.5602140122068838
aF0.32939310255882603
aF0.7462908857810242
aF0.5345573221105314
aF0.740267697480387
aF0.8409494941462711
aF0.25220980614060784
aF0.1659149771246432
atp3702
tp3703
a(g6
(S'\x00\x08\x1b\x00\x00\x00'
p3704
tp3705
Rp3706
g20
(lp3707
F0.5826436242154114
aF0.002012767464126819
aF0.6828009566952724
aF0.7093930730573089
aF0.9363391242660403
aF0.8484151491323911
aF0.6080098531564566
aF0.6233758080464823
aF0.09254088758036028
aF0.8619027217243831
aF0.8506618546056708
aF0.18596477243954423
aF0.6536442994143364
aF0.07657375639256381
aF0.5065874782611529
aF0.333104235915489
aF0.7073682853830661
aF0.39683887564782727
aF0.5997937633593773
aF0.7609131683473092
aF0.31736079252653027
aF0.026592137640047864
aF0.2450490638903814
atp3708
a(g6
(S'\x00\x08\x1f\x00\x00\x00'
p3709
tp3710
Rp3711
g10
((lp3712
g12
ag13
a(lp3713
F0.9374743984682523
aF0.3679065911607522
aF0.9195147412674203
aF0.2230664932098113
aF0.8896659389335365
aF0.3561641667174166
aF0.6591013194308756
aF0.03202908725683373
aF0.35674209438898197
aF0.834974880353494
aF0.28616749537083996
aF0.7870911751421183
aF0.5473004103266741
aF0.11778188052227001
aF0.3622282084682563
aF0.6035413927408868
aF0.25511414607004956
aF0.17955297685574634
aF0.9583428775249687
aF0.9504841747555597
aF0.9244161782888753
aF0.7800153234244513
aF0.31735309942568635
atp3714
tp3715
a(g6
(S'\x00\x08 \x00\x00\x00'
p3716
tp3717
Rp3718
g20
(lp3719
F0.6942922349085286
aF0.1688262290460787
aF0.7347691408830389
aF0.08786881895670828
aF0.9904769237330412
aF0.05189075326326009
aF0.3613795186791581
aF0.49917873498225107
aF0.8343936248572188
aF0.2535799877598356
aF0.018318428546413745
aF0.36572588032784326
aF0.06482117776895813
aF0.3940914882624691
aF0.4229079862982066
aF0.7652086947181032
aF0.8024959435255477
aF0.47248482814864956
aF0.6287385276465941
aF0.1279041855017149
aF0.8856078145294353
aF0.09675984694068551
aF0.3555366724955289
atp3720
a(g6
(S'\x00\x08$\x00\x00\x00'
p3721
tp3722
Rp3723
g10
((lp3724
g12
ag13
a(lp3725
F0.5155413222381556
aF0.544654210170822
aF0.040199744397894754
aF0.3942401722795137
aF0.7917233428614622
aF0.8034366978238785
aF0.5480949061535009
aF0.7094409990489169
aF0.447579910437354
aF0.6933273598776797
aF0.15105116031950727
aF0.14995000065557407
aF0.0561282828295222
aF0.4618245536438228
aF0.1574492061531525
aF0.4464807046957825
aF0.36321181971726724
aF0.7751602953981006
aF0.216491636976766
aF0.23633559086123013
aF0.9792426071423632
aF0.3397819475619209
aF0.6923818856351058
atp3726
tp3727
a(g6
(S'\x00\x08%\x00\x00\x00'
p3728
tp3729
Rp3730
g20
(lp3731
F0.6870617140852289
aF0.9343753267305714
aF0.3254606801776555
aF0.61748198383474
aF0.061962968274091645
aF0.08313094336114768
aF0.4559784639042719
aF0.03724249299519644
aF0.7408111019152119
aF0.11838837630996835
aF0.025697720770919585
aF0.07813083618830519
aF0.20934280613617073
aF0.6435624888127907
aF0.16467042044003866
aF0.20312681307092972
aF0.9421552438679709
aF0.580060671505292
aF0.08887886934260136
aF0.9657153730924476
aF0.2952497367318079
aF0.5071610406616994
aF0.15951767712780784
atp3732
a(g6
(S'\x00\x08)\x00\x00\x00'
p3733
tp3734
Rp3735
g10
((lp3736
g12
ag13
a(lp3737
F0.9332770819591273
aF0.8356421870266898
aF0.5104893817777274
aF0.44699423335376676
aF0.9430233558539765
aF0.23794953345275172
aF0.08830044667828374
aF0.8530752752897564
aF0.7341311501055215
aF0.5124121697417263
aF0.4374129178178665
aF0.8778557732723873
aF0.9898927680417188
aF0.5143172167090808
aF0.41215902513858005
aF0.5265993509698762
aF0.45124671079660794
aF0.3791985721741644
aF0.07327550738445288
aF0.7039732493075573
aF0.2566750021546764
aF0.2531015191891327
aF0.39506408850738306
atp3738
tp3739
a(g6
(S'\x00\x08*\x00\x00\x00'
p3740
tp3741
Rp3742
g20
(lp3743
F0.0867083706174383
aF0.08580896288705486
aF0.8560586078345029
aF0.7575897318650227
aF0.9427064351013956
aF0.28342876376128223
aF0.4964345892006291
aF0.2929515780727384
aF0.5557593158386742
aF0.44235373442908665
aF0.7181280100776805
aF0.22426901170704716
aF0.08230637663425378
aF0.5692447111080952
aF0.5671966894777645
aF0.7890051924492493
aF0.8454275502448729
aF0.1948280068969751
aF0.6007821721744665
aF0.5291466075688533
aF0.6507045254999747
aF0.8363871782759579
aF0.03090035551053716
atp3744
a(g6
(S'\x00\x08.\x00\x00\x00'
p3745
tp3746
Rp3747
g10
((lp3748
g12
ag13
a(lp3749
F0.3830073582552833
aF0.47531725779639666
aF0.9205920684188512
aF0.8509451900869429
aF0.5564584644217466
aF0.7402545150844613
aF0.8408796194559307
aF0.17002781183507842
aF0.9087414350856008
aF0.3671465100083944
aF0.25873195625725043
aF0.16803933655630832
aF0.13434861705776935
aF0.5126528866652228
aF0.6750480469666074
aF0.6466123939414514
aF0.7751873577899451
aF0.172818775104143
aF0.739291256509792
aF0.6813247050216455
aF0.04041858525002806
aF0.40178446474680063
aF0.7375285945298221
atp3750
tp3751
a(g6
(S'\x00\x08/\x00\x00\x00'
p3752
tp3753
Rp3754
g20
(lp3755
F0.5179569665779782
aF0.8634469145630342
aF0.6281995722465227
aF0.8854054983221037
aF0.6366367295699953
aF0.3453105793768828
aF0.27379957475026906
aF0.08536068995392732
aF0.8638775488131643
aF0.5605622009747857
aF0.9175333817067011
aF0.5879851366197477
aF0.14376139025116363
aF0.5641405120177517
aF0.7679864920992515
aF0.5429996158041308
aF0.41600374882337265
aF0.7381924861184322
aF0.13152082914393148
aF0.5266123033680161
aF0.7364603885427597
aF0.05283887938509724
aF0.053315820740719166
atp3756
a(g6
(S'\x00\x083\x00\x00\x00'
p3757
tp3758
Rp3759
g10
((lp3760
g12
ag13
a(lp3761
F0.5153832555021999
aF0.5435929109319777
aF0.9476564765315902
aF0.18286010270977093
aF0.7188301868284149
aF0.9197009201548769
aF0.2909517512672313
aF0.042915441522548226
aF0.2609657561556781
aF0.3223373253369566
aF0.6940614197815265
aF0.29966484435823304
aF0.9037267988768285
aF0.9849750126530291
aF0.6620539569202589
aF0.81225010027217
aF0.35599375450968573
aF0.41550011814109367
aF0.9621657789460683
aF0.711799336431143
aF0.13258185906870312
aF0.6535708448291572
aF0.8002903782314665
atp3762
tp3763
a(g6
(S'\x00\x084\x00\x00\x00'
p3764
tp3765
Rp3766
g20
(lp3767
F0.7952826048968198
aF0.37457193169781566
aF0.8019128960943522
aF0.9521654700127491
aF0.3261909599425914
aF0.9384972077454712
aF0.31238934638843985
aF0.44415281619100033
aF0.27623491944204703
aF0.8856722466456394
aF0.4432383178433752
aF0.9838447414037998
aF0.4846329425936431
aF0.11759131669156486
aF0.6805180500816922
aF0.32404588784037947
aF0.8101263228673757
aF0.8524638347184871
aF0.26049392761693835
aF0.7865640652548641
aF0.7732493034957323
aF0.3761602080008938
aF0.6431282468392389
atp3768
a(g6
(S'\x00\x088\x00\x00\x00'
p3769
tp3770
Rp3771
g10
((lp3772
g12
ag13
a(lp3773
F0.9103569882146813
aF0.917082236041258
aF0.18154056731830037
aF0.38631482377039705
aF0.10481525756439047
aF0.3290122356377515
aF0.9209639041665508
aF0.12968741938817607
aF0.25578100234951506
aF0.5500832676441101
aF0.5207875052184554
aF0.3192720210087153
aF0.9307297974312266
aF0.6801772017758713
aF0.4835344143749395
aF0.9455381387219799
aF0.04468298101996071
aF0.7524408952232406
aF0.19060358388646448
aF0.05950218220224479
aF0.39686595267498914
aF0.6911749445172549
aF0.5225190364647095
atp3774
tp3775
a(g6
(S'\x00\x089\x00\x00\x00'
p3776
tp3777
Rp3778
g20
(lp3779
F0.17629309184080233
aF0.05787287014106668
aF0.5296486278067117
aF0.6751069455578677
aF0.14051257097121472
aF0.5415058163111668
aF0.7058657198367286
aF0.7077297144417081
aF0.029458845432225433
aF0.23844904535590472
aF0.83923096323642
aF0.23441555586942608
aF0.5742333169334816
aF0.5122388025025703
aF0.08726982691293539
aF0.20011555722330632
aF0.013655897128850625
aF0.8488113510672104
aF0.55235859359804
aF0.0037191749735180357
aF0.32033813272430334
aF0.3542447431946969
aF0.6490756849999325
atp3780
a(g6
(S'\x00\t\x01\x00\x00\x00'
p3781
tp3782
Rp3783
g10
((lp3784
g12
ag13
a(lp3785
F0.8070575190392995
aF0.23495538430027374
aF0.8410115149910421
aF0.4277554917351837
aF0.17497319155472224
aF0.8102229669917986
aF0.2823710145684092
aF0.6754561510435434
aF0.5953906606893098
aF0.9594336613944676
aF0.8624049030848832
aF0.24197995499100966
aF0.6185452216195625
aF0.6759946022251123
aF0.6764082022107989
aF0.7113355923726847
aF0.9727857965967432
aF0.08113616183779615
aF0.8867809427261079
aF0.024283892639750393
aF0.42666240397779176
aF0.23182935465372945
aF0.21514972596772375
atp3786
tp3787
a(g6
(S'\x00\t\x02\x00\x00\x00'
p3788
tp3789
Rp3790
g20
(lp3791
F0.7290070046146546
aF0.08191544040741972
aF0.8381501758241701
aF0.7243042838200034
aF0.6128569819093845
aF0.5520897955409204
aF0.14966862091846544
aF0.830844139833762
aF0.3005664766021613
aF0.9673934924768789
aF0.8357661108046591
aF0.4051383311977844
aF0.6150615828923754
aF0.044433509460744314
aF0.5475322469748728
aF0.8554283754345313
aF0.49629873759784704
aF0.8929073223281753
aF0.7471177690384134
aF0.26576950419570966
aF0.06951883557597893
aF0.008443583822848932
aF0.9893621097646436
atp3792
a(g6
(S'\x00\t\x06\x00\x00\x00'
p3793
tp3794
Rp3795
g10
((lp3796
g12
ag13
a(lp3797
F0.46360139469603767
aF0.52839782227662
aF0.6597444263743639
aF0.19799195777819734
aF0.31869516428379896
aF0.9641758901313303
aF0.3163019332911948
aF0.6585625217503678
aF0.9712921857006959
aF0.5378196280200204
aF0.6234754430926162
aF0.07348487962887118
aF0.6612327113928227
aF0.4990902078874345
aF0.657470956472893
aF0.8920350992757671
aF0.5259001890824174
aF0.4012244844309504
aF0.12446834654974837
aF0.5984293961882646
aF0.9122311172227002
aF0.4013166077300928
aF0.2048892203747551
atp3798
tp3799
a(g6
(S'\x00\t\x07\x00\x00\x00'
p3800
tp3801
Rp3802
g20
(lp3803
F0.08747233543396538
aF0.04146870127405089
aF0.4326970675391937
aF0.24707046424606693
aF0.46839230191830916
aF0.4294802621268988
aF0.45875400623560936
aF0.9555254797837904
aF0.1626360812780857
aF0.45100233875035467
aF0.9685327445110051
aF0.9371548531418091
aF0.6793329578193837
aF0.9990693724489385
aF0.44975214016854737
aF0.9294685110440004
aF0.8626734319335349
aF0.06188359907209018
aF0.5280556948106613
aF0.18426201582288093
aF0.6593870368449517
aF0.5426865698536494
aF0.04139912714252647
atp3804
a(g6
(S'\x00\t\x0b\x00\x00\x00'
p3805
tp3806
Rp3807
g10
((lp3808
g12
ag13
a(lp3809
F0.3406124498180785
aF0.7092702665350542
aF0.1721972567315626
aF0.16737659369083513
aF0.9707125129367469
aF0.5357939785888731
aF0.1343068771503223
aF0.06909254117738883
aF0.7593717770966103
aF0.2582132830623286
aF0.20200274231723048
aF0.7293084422123423
aF0.6255695211313409
aF0.28039624849617883
aF0.10151146363204644
aF0.6592418580233237
aF0.4128900560290728
aF0.13272471076714565
aF0.30083336507325953
aF0.5258043639541399
aF0.30940418714233264
aF0.5085619429986907
aF0.4736276479118078
atp3810
tp3811
a(g6
(S'\x00\t\x0c\x00\x00\x00'
p3812
tp3813
Rp3814
g20
(lp3815
F0.15589734385502174
aF0.02865576340007192
aF0.04424097730253507
aF0.697592876504883
aF0.3689589096662387
aF0.9141824562519635
aF0.8113934191465579
aF0.7080565347502271
aF0.4724895753320819
aF0.5245000046723671
aF0.0790587129530842
aF0.4112387853751708
aF0.9149034507990154
aF0.23169427407459997
aF0.5827190237901696
aF0.44127867060210213
aF0.4230974419518664
aF0.035872719513919016
aF0.03239077566223614
aF0.9371252402825051
aF0.9712161199401106
aF0.44092863168275487
aF0.13218295612026265
atp3816
asg167
(dp3817
I1
(lp3818
(lp3819
S'115,157,176,158,176'
p3820
aS'121,174,167,168,170'
p3821
aS'129,210,190,211,194'
p3822
aS'113,174,226,176,221'
p3823
aS'123,164,182,164,182'
p3824
aS'72,154,191,154,191'
p3825
aS'59,267,41,267,41'
p3826
aS'107,178,376,178,376'
p3827
aS'100,150,157,150,157'
p3828
aS'126,176,240,176,240'
p3829
aa(lp3830
S'121,171,165,166,168'
p3831
aS'126,173,237,176,240'
p3832
aS'72,154,191,154,191'
p3833
aS'59,267,41,267,41'
p3834
aS'129,211,194,211,194'
p3835
aS'113,176,221,176,221'
p3836
aS'101,180,232,180,232'
p3837
aS'86,189,247,189,247'
p3838
aS'62,155,233,155,233'
p3839
aS'108,157,236,157,236'
p3840
aS'87,156,229,156,229'
p3841
aS'75,206,240,206,240'
p3842
aS'64,194,253,194,253'
p3843
aS'68,205,253,205,253'
p3844
aS'89,157,289,157,289'
p3845
aS'78,134,243,134,243'
p3846
aasI2
(lp3847
(lp3848
S'59,268,35,205,173'
p3849
aS'121,138,10,188,172'
p3850
aS'119,159,360,167,256'
p3851
aS'95,120,80,149,255'
p3852
aS'79,124,343,135,317'
p3853
aS'107,182,278,182,278'
p3854
aS'114,177,298,177,298'
p3855
aS'111,170,307,170,307'
p3856
aS'103,167,315,167,315'
p3857
aS'106,165,310,165,310'
p3858
aS'96,167,297,167,297'
p3859
aS'76,155,299,155,299'
p3860
aS'82,158,300,158,300'
p3861
aS'89,158,287,158,287'
p3862
aS'116,142,285,142,285'
p3863
aS'125,134,293,134,293'
p3864
aS'102,134,307,134,307'
p3865
aS'67,129,307,129,307'
p3866
aS'117,131,283,131,283'
p3867
aS'70,195,351,195,351'
p3868
aS'3,17,10,17,10'
p3869
aa(lp3870
S'88,182,369,183,259'
p3871
aS'107,179,376,182,278'
p3872
aS'118,299,114,197,222'
p3873
aS'69,125,116,158,209'
p3874
aS'66,73,126,144,216'
p3875
aS'73,77,129,177,211'
p3876
aS'110,123,139,160,140'
p3877
aS'124,110,149,172,150'
p3878
aS'71,108,175,170,163'
p3879
aS'98,85,177,146,171'
p3880
aS'3,19,12,17,10'
p3881
aS'119,167,256,167,256'
p3882
aasI3
(lp3883
(lp3884
S'55,50,288,50,288'
p3885
aS'35,58,281,58,281'
p3886
aS'44,70,320,70,320'
p3887
aS'9,26,242,26,242'
p3888
aS'22,29,235,29,235'
p3889
aa(lp3890
S'14,16,50,16,221'
p3891
aS'3,13,10,29,203'
p3892
aS'10,82,88,47,196'
p3893
aS'57,96,164,15,250'
p3894
aS'45,120,157,25,258'
p3895
aS'34,132,210,36,262'
p3896
aS'21,133,206,55,262'
p3897
aS'33,110,121,43,247'
p3898
aasI4
(lp3899
(lp3900
S'16,61,163,61,163'
p3901
aS'19,62,155,62,155'
p3902
aS'29,65,170,65,170'
p3903
aS'30,51,172,51,172'
p3904
aS'1,62,173,62,173'
p3905
aS'15,70,158,70,158'
p3906
aS'48,69,154,69,154'
p3907
aS'17,78,149,78,149'
p3908
aS'54,67,144,67,144'
p3909
aS'23,80,131,80,131'
p3910
aS'26,76,140,76,140'
p3911
aa(lp3912
S'3,10,376,35,226'
p3913
aS'14,12,340,13,217'
p3914
aS'10,49,280,21,233'
p3915
aS'33,88,238,18,182'
p3916
aS'57,78,204,28,213'
p3917
aS'45,105,225,65,221'
p3918
aasI5
(lp3919
(lp3920
S'15,61,171,61,171'
p3921
aS'29,58,177,58,177'
p3922
aS'1,57,168,57,168'
p3923
aS'19,58,166,58,166'
p3924
aS'17,75,163,75,163'
p3925
aS'54,61,160,61,160'
p3926
aS'16,60,183,60,183'
p3927
aS'40,51,180,51,180'
p3928
aa(lp3929
S'14,17,342,38,176'
p3930
aS'3,17,376,43,164'
p3931
aS'18,33,318,49,148'
p3932
aasI6
(lp3933
(lp3934
S'101,138,65,138,65'
p3935
aS'113,153,61,153,61'
p3936
aS'82,129,54,129,54'
p3937
aS'128,132,91,132,91'
p3938
aS'126,122,90,122,90'
p3939
aS'78,124,98,124,98'
p3940
aa(lp3941
S'71,53,198,145,91'
p3942
aS'98,55,168,140,76'
p3943
aS'73,34,223,126,81'
p3944
aS'54,46,182,21,185'
p3945
aS'19,45,192,22,198'
p3946
aS'66,50,188,143,100'
p3947
aS'23,48,134,161,97'
p3948
aS'74,55,118,151,79'
p3949
aS'121,105,261,150,110'
p3950
aS'63,48,132,48,132'
p3951
aasI7
(lp3952
(lp3953
S'87,90,43,86,46'
p3954
aS'101,101,58,101,58'
p3955
aS'108,95,51,95,51'
p3956
aS'106,86,45,86,45'
p3957
aS'111,93,44,93,44'
p3958
aS'89,83,43,83,43'
p3959
aS'116,78,42,78,42'
p3960
aS'117,78,45,78,45'
p3961
aS'82,97,39,97,39'
p3962
aS'114,95,43,95,43'
p3963
aS'125,85,56,85,56'
p3964
aS'119,109,34,109,34'
p3965
aS'120,84,71,84,71'
p3966
aS'128,110,68,110,68'
p3967
aS'126,107,75,107,75'
p3968
aa(lp3969
S'123,166,166,120,92'
p3970
aS'66,47,175,85,26'
p3971
aS'73,23,190,104,21'
p3972
aS'71,46,191,107,43'
p3973
aS'83,239,115,105,52'
p3974
aS'118,230,106,97,67'
p3975
aS'121,104,162,114,66'
p3976
aasI8
(lp3977
(lp3978
S'11,85,222,85,222'
p3979
aS'15,82,221,82,221'
p3980
aS'53,90,229,90,229'
p3981
aS'50,71,225,71,225'
p3982
aS'12,74,214,74,214'
p3983
aS'30,72,215,72,215'
p3984
aS'7,50,230,50,230'
p3985
aS'47,51,237,51,237'
p3986
aS'54,59,203,59,203'
p3987
aS'55,57,205,57,205'
p3988
aa(lp3989
S'3,76,242,75,283'
p3990
aS'14,85,234,85,234'
p3991
aS'18,111,341,68,226'
p3992
aasI9
(lp3993
(lp3994
S'132,299,138,299,138'
p3995
aS'147,305,145,305,145'
p3996
aS'157,316,151,316,151'
p3997
aS'165,295,153,295,153'
p3998
aS'174,284,155,284,155'
p3999
aS'148,296,172,296,172'
p4000
aS'167,295,169,295,169'
p4001
aS'154,312,129,312,129'
p4002
aS'160,294,124,294,124'
p4003
aS'134,286,124,286,124'
p4004
aa(lp4005
S'158,308,195,308,195'
p4006
aS'159,313,285,320,158'
p4007
aS'139,206,70,290,141'
p4008
aS'143,214,98,280,144'
p4009
aS'141,207,116,299,128'
p4010
aS'145,255,93,289,146'
p4011
aS'140,235,85,320,141'
p4012
aasI10
(lp4013
(lp4014
S'54,62,166,62,166'
p4015
aS'19,51,167,51,167'
p4016
aS'55,55,168,55,168'
p4017
aS'40,52,174,52,174'
p4018
aS'2,63,173,63,173'
p4019
aS'50,62,179,62,179'
p4020
aS'28,44,187,44,187'
p4021
aS'15,72,188,72,188'
p4022
aS'30,65,187,65,187'
p4023
aa(lp4024
S'25,76,84,52,190'
p4025
aS'37,98,91,60,199'
p4026
aS'36,93,99,56,178'
p4027
aS'43,107,111,56,181'
p4028
aS'21,64,117,65,193'
p4029
aS'23,45,117,55,188'
p4030
aS'44,52,115,65,192'
p4031
aS'32,82,115,64,192'
p4032
aS'27,90,125,66,184'
p4033
aS'4,88,106,65,181'
p4034
aS'38,94,103,94,103'
p4035
aassg652
(lp4036
(g654
(g658
S'\x02\xedX\xee\xb4s\xb2?'
p4037
tp4038
Rp4039
g654
(g658
S'\xeak\xf3\x17n\xf4\xbc?'
p4040
tp4041
Rp4042
tp4043
a(g654
(g658
S'nd\xb0\xa4\\\x02\xa7?'
p4044
tp4045
Rp4046
g654
(g658
S'1\x7f\x96&sV\xb9?'
p4047
tp4048
Rp4049
tp4050
a(g654
(g658
S'\x80!?,\n\xc3\xa1?'
p4051
tp4052
Rp4053
g654
(g658
S'\x1b"\xc3\\\x97<\xb2?'
p4054
tp4055
Rp4056
tp4057
a(g654
(g658
S'\xbfv9\x94\xfd\xaa\xa1?'
p4058
tp4059
Rp4060
g654
(g658
S'\x80\xfc\x9b\xb5t\xde\xaf?'
p4061
tp4062
Rp4063
tp4064
a(g654
(g658
S'\xd9\x1f\xe5\x8b}!\xad?'
p4065
tp4066
Rp4067
g654
(g658
S'\xbaFz\x0e\x10/\xa9?'
p4068
tp4069
Rp4070
tp4071
a(g654
(g658
S'r\x86\xf0\x19\x9e\x93\xa6?'
p4072
tp4073
Rp4074
g654
(g658
S'a\x1c\xb2$[Nt?'
p4075
tp4076
Rp4077
tp4078
a(g654
(g658
S'\xd5\x12\xe4D\xc69_\xbf'
p4079
tp4080
Rp4081
g654
(g658
S'P\xe7\xd0\xa04 \xae\xbf'
p4082
tp4083
Rp4084
tp4085
a(g654
(g658
S'B\xf2#\xd9\xe6`\x9c?'
p4086
tp4087
Rp4088
g654
(g658
S'\x13\xf8\x9b\x96\xcb\x8f\x91\xbf'
p4089
tp4090
Rp4091
tp4092
a(g654
(g658
S'^_\x86\xbe\x99\xd9\x8d?'
p4093
tp4094
Rp4095
g654
(g658
S'\x0e`\x00\x7f\xef\xcd\x9b\xbf'
p4096
tp4097
Rp4098
tp4099
a(g654
(g658
S'qPjT\x7f\x8e\x9b?'
p4100
tp4101
Rp4102
g654
(g658
S'\x04Us\xcbo\x9e\xb2\xbf'
p4103
tp4104
Rp4105
tp4106
asg752
(lp4107
g654
(g658
S'\xe2\xe9\xd7\xfb\xb3C\xed?'
p4108
tp4109
Rp4110
ag654
(g658
S'\xe2\xe9\xd7\xfb\xb3C\xed?'
p4111
tp4112
Rp4113
ag654
(g658
S'\xc5"f\xdf\xec\xd1\xed?'
p4114
tp4115
Rp4116
ag654
(g658
S'~\xd8$\x8c\xbdZ\xee?'
p4117
tp4118
Rp4119
ag654
(g658
S'EM;_\x17\xa7\xed?'
p4120
tp4121
Rp4122
ag654
(g658
S'\xf5R\x96\x0f\x1d\x02\xee?'
p4123
tp4124
Rp4125
ag654
(g658
S'b\x11\xb3o\xf6\xe8\xee?'
p4126
tp4127
Rp4128
ag654
(g658
S'b\x11\xb3o\xf6\xe8\xee?'
p4129
tp4130
Rp4131
ag654
(g658
S'\x9d\x00;\xc6\xaf\xdc\xed?'
p4132
tp4133
Rp4134
ag654
(g658
S'\xe5>\x8b\xf2#\xc1\xee?'
p4135
tp4136
Rp4137
ag654
(g658
S'\x8a\x8e\x85\x97s\xbb\xee?'
p4138
tp4139
Rp4140
asg796
(dp4141
g798
g799
sg800
g801
sg806
g807
sg808
(lp4142
(lp4143
asg811
g6
(S'\x00\x00\x00\x00\x00\x00'
p4144
tp4145
Rp4146
sg815
g816
ssg824
(lp4147
g826
a(lp4148
g861
ag863
ag864
ag865
ag833
aa(lp4149
g833
ag839
ag832
ag867
ag829
aa(lp4150
g833
ag832
ag839
ag829
ag836
aa(lp4151
g833
ag832
ag829
ag836
ag839
aa(lp4152
g833
ag836
ag832
ag829
ag830
aa(lp4153
g833
ag832
ag836
ag802
ag829
aa(lp4154
g832
ag836
ag833
ag829
ag858
aa(lp4155
g832
ag833
ag836
ag829
ag857
aa(lp4156
g833
ag836
ag829
ag832
ag857
aa(lp4157
g833
ag836
ag829
ag832
ag857
aasg847
(g654
(g658
S'\xb8p\x8a\xb8f\xa0\xb2?'
p4158
tp4159
Rp4160
g654
(g658
S'\xc0\x8fE\x1b \xe8\xbc?'
p4161
tp4162
Rp4163
tp4164
sg855
g856
ssI11
(dp4165
g2
(lp4166
I0
aI0
aI1
aI0
aI1
aI0
aI0
aI0
aI0
asg4
(lp4167
(g6
(S'\x00\x08\x1a\x00\x00\x00'
p4168
tp4169
Rp4170
g10
((lp4171
g12
ag13
a(lp4172
F0.5855471128533554
aF0.1447928526533181
aF0.5919922398620854
aF0.6405808103058502
aF0.24092865805013153
aF0.8460380338332608
aF0.4893889645203895
aF0.8527434332317865
aF0.107864522027737
aF0.2943709849518351
aF0.47277054722679457
aF0.06417129239010233
aF0.9399500398980192
aF0.021940987994073624
aF0.11357291037928563
aF0.24839973326294107
aF0.5773780235318411
aF0.43187481905172054
aF0.6367389855464171
aF0.49669299998767646
aF0.8389509038757125
aF0.027717700294938363
aF0.7145338469951996
atp4173
tp4174
a(g6
(S'\x00\x08\x1b\x00\x00\x00'
p4175
tp4176
Rp4177
g20
(lp4178
F0.03168528783720992
aF0.305874941038901
aF0.3539673070102499
aF0.20462371088432751
aF0.5990918421060981
aF0.9438488319994375
aF0.4804165240317636
aF0.2518532344508775
aF0.5552746442998575
aF0.49225873759720096
aF0.004051913903134308
aF0.15685771745099686
aF0.15371759966471432
aF0.011443542710674492
aF0.5991725374431643
aF0.957844788532437
aF0.42469613795306005
aF0.5857551924624244
aF0.02524034591376223
aF0.5512779891131819
aF0.6220672957823414
aF0.3356813810752519
aF0.8183039485457093
atp4179
a(g6
(S'\x00\x08\x1f\x00\x00\x00'
p4180
tp4181
Rp4182
g10
((lp4183
g12
ag13
a(lp4184
F0.13491783051142192
aF0.12260657968355537
aF0.5401743551796166
aF0.5557744487413003
aF0.9008012421666909
aF0.048490248514811096
aF0.12185030340186798
aF0.281979314829793
aF0.9081765965554034
aF0.2681171023950255
aF0.0893775687792997
aF0.7913833267771341
aF0.39090341992216393
aF0.3397694510614351
aF0.31864596667971234
aF0.9676944647411458
aF0.12484185157577377
aF0.5966779390522767
aF0.6765878743626557
aF0.9552774574346709
aF0.44685029613535676
aF0.14941174559999582
aF0.5684007860548613
atp4185
tp4186
a(g6
(S'\x00\x08 \x00\x00\x00'
p4187
tp4188
Rp4189
g20
(lp4190
F0.1702131357811011
aF0.41087033765821923
aF0.7339785755685799
aF0.18912646321122595
aF0.6286213261537081
aF0.44533774560593076
aF0.5762200633250082
aF0.09849324937675163
aF0.21763301652874112
aF0.22798548824523235
aF0.16484462292235813
aF0.25574707710393985
aF0.38606703702132494
aF0.5787561244363004
aF0.4232603429981283
aF0.17144647469214347
aF0.02680955324500267
aF0.93183358040682
aF0.9790430314756302
aF0.5971990306106482
aF0.02954663045670536
aF0.044287609209196166
aF0.22109521954769695
atp4191
a(g6
(S'\x00\x08$\x00\x00\x00'
p4192
tp4193
Rp4194
g10
((lp4195
g12
ag13
a(lp4196
F0.4801928888991772
aF0.1906240158434337
aF0.918854607314817
aF0.9520642266314134
aF0.18254462387065296
aF0.08451342431076592
aF0.23860230348237266
aF0.8071495890170391
aF0.029310573146512198
aF0.21132581319521326
aF0.7971380389093694
aF0.5585800545832535
aF0.9423832350616054
aF0.38600382241584574
aF0.493024670979631
aF0.724058765001712
aF0.21203651893811504
aF0.5649602547632415
aF0.5701244711255489
aF0.8688367025888206
aF0.3202636859450322
aF0.9677026220723484
aF0.23197087481635525
atp4197
tp4198
a(g6
(S'\x00\x08%\x00\x00\x00'
p4199
tp4200
Rp4201
g20
(lp4202
F0.5967714837785643
aF0.14362434460126627
aF0.5438507900486346
aF0.6787523261910804
aF0.18117772724041137
aF0.7929290210060778
aF0.5754909261961687
aF0.863274032147378
aF0.8455307821556417
aF0.7362777728257446
aF0.20488104486776637
aF0.3055845026135804
aF0.16042617778102009
aF0.6002371044271766
aF0.46334957134032795
aF0.018873138007113544
aF0.46183204831713087
aF0.7492098941169378
aF0.8108548421156168
aF0.32537789020474606
aF0.5576475118483069
aF0.9719397409158316
aF0.6732719473870243
atp4203
a(g6
(S'\x00\x08)\x00\x00\x00'
p4204
tp4205
Rp4206
g10
((lp4207
g12
ag13
a(lp4208
F0.2733826922920283
aF0.48536076910068815
aF0.49249388277623907
aF0.2291911379063588
aF0.6096568866788854
aF0.15526627850542718
aF0.9558403061899831
aF0.6471451371280584
aF0.021915592305218
aF0.6302737663472565
aF0.23238744905451225
aF0.5153425210720881
aF0.5993962582534876
aF0.5111051886471056
aF0.08571384661840731
aF0.8219903177582604
aF0.9472920331071211
aF0.07547934824499758
aF0.7173445825304532
aF0.22547254751908707
aF0.2782530201573141
aF0.6404371954622167
aF0.3858848170020698
atp4209
tp4210
a(g6
(S'\x00\x08*\x00\x00\x00'
p4211
tp4212
Rp4213
g20
(lp4214
F0.528251389899605
aF0.5379674994932884
aF0.04577316815065169
aF0.719709757006026
aF0.5337483763417937
aF0.15833017985556652
aF0.6389262999078406
aF0.5803079267694163
aF0.8537505214078848
aF0.02633312010494071
aF0.6330409761919722
aF0.37864169887154986
aF0.47454987837493734
aF0.703445119630877
aF0.7462868237095206
aF0.32101608832896167
aF0.013178575862930697
aF0.15389553016508817
aF0.8093666826093361
aF0.24328125266564704
aF0.29445883967262754
aF0.606400399736182
aF0.18088207000407175
atp4215
a(g6
(S'\x00\x08.\x00\x00\x00'
p4216
tp4217
Rp4218
g10
((lp4219
g12
ag13
a(lp4220
F0.34532688202656814
aF0.06706994597076765
aF0.033355924276935234
aF0.4999625788494618
aF0.8178311493720752
aF0.06696284253133578
aF0.262940978831276
aF0.3436865479492005
aF0.2127796568359911
aF0.8622403830775751
aF0.42554435772765764
aF0.429246731664344
aF0.7802771401364818
aF0.6202964078821059
aF0.0648766316726006
aF0.3866126573181803
aF0.21985741852797347
aF0.880048381928634
aF0.6645156753319166
aF0.0840897789509576
aF0.9474971666589588
aF0.12628832325671968
aF0.7068373625301831
atp4221
tp4222
a(g6
(S'\x00\x08/\x00\x00\x00'
p4223
tp4224
Rp4225
g20
(lp4226
F0.7367477819005973
aF0.7898373263143845
aF0.575837132630749
aF0.20986625251705981
aF0.16209655191938832
aF0.6615943733157265
aF0.1089212809513499
aF0.6801926007449756
aF0.2103393820666022
aF0.516127159298484
aF0.8762882620907863
aF0.7125305559249215
aF0.49533635440406587
aF0.6594236113408016
aF0.8979912767982986
aF0.6023617345774128
aF0.7648218202894811
aF0.037556605468670234
aF0.12995085105111903
aF0.6249563669733513
aF0.9160009011782095
aF0.5127775169189697
aF0.8537340057212094
atp4227
a(g6
(S'\x00\x083\x00\x00\x00'
p4228
tp4229
Rp4230
g10
((lp4231
g12
ag13
a(lp4232
F0.8013996723745032
aF0.7508608028666869
aF0.5526194018586184
aF0.2980496545572028
aF0.9854724858334533
aF0.5057329513922783
aF0.8352125081972123
aF0.6861436039778003
aF0.25024571277989827
aF0.49336644796231033
aF0.8648113766251662
aF0.9887684195275738
aF0.9256412323688827
aF0.8497421936866215
aF0.7273142536011098
aF0.5261082924714722
aF0.17278268572271904
aF0.2650563112990899
aF0.27246782678687775
aF0.7742960964620159
aF0.872615019953403
aF0.67123407072295
aF0.3263458648301434
atp4233
tp4234
a(g6
(S'\x00\x084\x00\x00\x00'
p4235
tp4236
Rp4237
g20
(lp4238
F0.699442867552186
aF0.14806936403767035
aF0.2652591149053046
aF0.9533034949853993
aF0.4935530304704905
aF0.053275479318755314
aF0.9453995936004419
aF0.3601157943822644
aF0.6227364231185503
aF0.13988610640423893
aF0.4415074072955709
aF0.5510123433178631
aF0.3734277240313164
aF0.8031894044169392
aF0.8322063613648917
aF0.49804695287711176
aF0.6792328726344838
aF0.30468250623795845
aF0.512867143726981
aF0.6093613308111887
aF0.746508489907833
aF0.7846685803589261
aF0.8146940265244218
atp4239
a(g6
(S'\x00\x088\x00\x00\x00'
p4240
tp4241
Rp4242
g10
((lp4243
g12
ag13
a(lp4244
F0.19287070462630196
aF0.041058831728563394
aF0.6226375776964269
aF0.5635274940606676
aF0.11412482426402837
aF0.7428914712599693
aF0.19213879194037542
aF0.2944857264819647
aF0.06338108684345856
aF0.3495321315667951
aF0.4031568177765822
aF0.4815384299784524
aF0.8137456839026874
aF0.3423754371135277
aF0.5763471310248386
aF0.9497103390607766
aF0.22518832294818358
aF0.3432641860990281
aF0.12418028084481747
aF0.6630875793326165
aF0.6024538167788905
aF0.9458234351754413
aF0.8211920538944016
atp4245
tp4246
a(g6
(S'\x00\x089\x00\x00\x00'
p4247
tp4248
Rp4249
g20
(lp4250
F0.579995430091619
aF0.00929034466892631
aF0.19682376489549225
aF0.7691118957263946
aF0.501058741067426
aF0.7209365134840163
aF0.7213480212070577
aF0.7678035199089343
aF0.8177084363236026
aF0.8304787607630048
aF0.36229135809475566
aF0.5568914901561018
aF0.5445177420342995
aF0.6731036964772875
aF0.14606446662756234
aF0.1625375168198261
aF0.3056383839500052
aF0.7474727031203167
aF0.5980922394906262
aF0.11725270091229356
aF0.1318091572000053
aF0.6493181341366782
aF0.772472945896072
atp4251
a(g6
(S'\x00\t\x01\x00\x00\x00'
p4252
tp4253
Rp4254
g10
((lp4255
g12
ag13
a(lp4256
F0.2775471419229454
aF0.14073242591314616
aF0.2592194743184548
aF0.025350195894143335
aF0.497732912744397
aF0.39168414053592515
aF0.18631249487960577
aF0.11697783731990674
aF0.5781604496543538
aF0.8214749512093048
aF0.8686316694167513
aF0.779508973740299
aF0.3123934246760026
aF0.9235053764648518
aF0.20804613409779005
aF0.7917959173791406
aF0.6171623040511758
aF0.43958085420310755
aF0.5225243094274892
aF0.25841176913217523
aF0.8122722138087146
aF0.37295268748301647
aF0.2815822240885256
atp4257
tp4258
a(g6
(S'\x00\t\x02\x00\x00\x00'
p4259
tp4260
Rp4261
g20
(lp4262
F0.4688219959104146
aF0.4555124651358099
aF0.9556743085280944
aF0.21546223950938304
aF0.2328148443654452
aF0.9255153450497071
aF0.15816441597986086
aF0.9955853298207354
aF0.1467987366986434
aF0.39989722554161145
aF0.12116875351378287
aF0.9460360577618974
aF0.6674275418905143
aF0.8150963595547926
aF0.7194597296990174
aF0.27755833995495327
aF0.8021901593127883
aF0.8455487637162138
aF0.8003639331639267
aF0.9238296742242554
aF0.8935883733841109
aF0.10405567587985254
aF0.6452253192428559
atp4263
a(g6
(S'\x00\t\x06\x00\x00\x00'
p4264
tp4265
Rp4266
g10
((lp4267
g12
ag13
a(lp4268
F0.07128964755793099
aF0.5496831610306885
aF0.09293171019751989
aF0.986102767922859
aF0.5759080568197648
aF0.27326653008743707
aF0.3509701417125517
aF0.30237785632384495
aF0.5927988777345354
aF0.6136489149127738
aF0.454373948930895
aF0.6563978590305751
aF0.40494689988913146
aF0.8277019103031995
aF0.0072648266761036195
aF0.6968247906644819
aF0.7036207887378918
aF0.7036122050127319
aF0.25854380983820857
aF0.8572524795680198
aF0.533256038321116
aF0.5623372816579681
aF0.9148192694194764
atp4269
tp4270
a(g6
(S'\x00\t\x07\x00\x00\x00'
p4271
tp4272
Rp4273
g20
(lp4274
F0.5067187972845997
aF0.4993449629779204
aF0.5644334251943106
aF0.5893182365056193
aF0.15606062849647384
aF0.5181692679916056
aF0.015567658829992781
aF0.21930441767264752
aF0.14613686310749363
aF0.14057161749205704
aF0.28734127975761403
aF0.790529022319826
aF0.11493709239895977
aF0.41915114277396825
aF0.7401637438521316
aF0.11383362083907389
aF0.9010562350230793
aF0.46273956001399463
aF0.6577681942012272
aF0.32433264994483124
aF0.22642506353978287
aF0.35166042268005215
aF0.10927046171594912
atp4275
asg167
(dp4276
I1
(lp4277
(lp4278
S'66,67,121,157,209'
p4279
aS'98,77,168,151,201'
p4280
aS'109,91,209,150,185'
p4281
aS'36,94,237,157,236'
p4282
aS'81,96,239,160,242'
p4283
aS'74,64,207,153,247'
p4284
aS'63,63,244,156,249'
p4285
aS'73,69,125,167,162'
p4286
aS'124,99,142,166,144'
p4287
aS'71,97,168,162,170'
p4288
aS'121,123,10,148,165'
p4289
aS'59,240,39,160,184'
p4290
aS'118,269,112,147,194'
p4291
aS'90,224,247,160,193'
p4292
aS'92,227,223,125,204'
p4293
aS'83,242,206,153,204'
p4294
aa(lp4295
S'64,175,237,175,237'
p4296
aS'86,171,231,171,231'
p4297
aS'66,157,209,157,209'
p4298
aS'101,163,217,163,217'
p4299
aS'113,158,212,158,212'
p4300
aS'126,156,222,156,222'
p4301
aS'62,140,218,140,218'
p4302
aS'108,142,221,142,221'
p4303
aS'87,141,215,141,215'
p4304
aS'128,158,180,158,180'
p4305
aS'123,148,170,148,170'
p4306
aS'72,139,180,139,180'
p4307
aasI2
(lp4308
(lp4309
S'121,110,247,173,26'
p4310
aS'59,234,220,164,25'
p4311
aS'118,265,192,176,30'
p4312
aS'95,100,246,178,18'
p4313
aS'69,102,212,190,44'
p4314
aS'73,49,199,182,37'
p4315
aS'110,113,181,167,50'
p4316
aS'29,68,173,152,47'
p4317
aS'74,61,120,168,25'
p4318
aS'124,97,171,173,47'
p4319
aS'71,91,166,164,45'
p4320
aS'98,83,149,176,37'
p4321
aS'83,241,131,138,36'
p4322
aS'60,220,119,137,37'
p4323
aS'92,226,107,166,50'
p4324
aS'61,233,92,167,59'
p4325
aS'109,87,115,153,49'
p4326
aS'63,75,99,154,36'
p4327
aS'81,90,91,144,55'
p4328
aS'66,70,170,153,44'
p4329
aS'100,124,140,168,50'
p4330
aS'123,143,141,176,57'
p4331
aa(lp4332
S'150,257,258,257,258'
p4333
aS'151,272,252,272,252'
p4334
aS'171,316,229,316,229'
p4335
aS'146,328,218,328,218'
p4336
aS'155,301,214,301,214'
p4337
aS'147,298,198,298,198'
p4338
aS'0,10,206,10,206'
p4339
aS'42,25,234,25,234'
p4340
aS'52,40,258,40,258'
p4341
aS'10,56,287,56,287'
p4342
aS'56,43,227,43,227'
p4343
aS'51,35,211,35,211'
p4344
aS'58,48,211,48,211'
p4345
aS'18,38,293,38,293'
p4346
aS'173,306,266,306,266'
p4347
aasI3
(lp4348
(lp4349
S'121,110,247,110,247'
p4350
aS'95,100,246,100,246'
p4351
aS'69,102,212,102,212'
p4352
aS'73,49,199,49,199'
p4353
aS'110,113,181,113,181'
p4354
aS'124,97,171,97,171'
p4355
aS'29,68,173,68,173'
p4356
aS'66,70,170,70,170'
p4357
aS'71,91,166,91,166'
p4358
aS'98,83,149,83,149'
p4359
aS'74,61,120,61,120'
p4360
aS'63,75,99,75,99'
p4361
aS'109,87,115,87,115'
p4362
aS'81,90,91,90,91'
p4363
aS'100,124,140,124,140'
p4364
aS'84,103,117,103,117'
p4365
aS'104,105,84,105,84'
p4366
aS'115,144,139,144,139'
p4367
aS'123,143,141,143,141'
p4368
aS'78,125,121,125,121'
p4369
aS'80,122,116,122,116'
p4370
aS'65,119,109,119,109'
p4371
aS'85,111,101,111,101'
p4372
aS'99,112,104,112,104'
p4373
aS'120,117,116,117,116'
p4374
aS'94,110,112,110,112'
p4375
aS'72,140,126,140,126'
p4376
aa(lp4377
S'107,171,10,171,10'
p4378
aS'88,165,13,165,13'
p4379
aS'119,142,23,142,23'
p4380
aS'70,183,45,183,45'
p4381
aS'103,160,39,160,39'
p4382
aS'111,154,52,154,52'
p4383
aS'114,156,54,156,54'
p4384
aS'82,140,44,140,44'
p4385
aS'106,143,43,143,43'
p4386
aasI4
(lp4387
(lp4388
S'115,194,29,194,29'
p4389
aS'123,215,44,215,44'
p4390
aS'100,213,50,213,50'
p4391
aS'72,140,126,184,52'
p4392
aS'43,116,121,170,48'
p4393
aS'94,110,112,152,63'
p4394
aS'85,111,101,160,55'
p4395
aS'99,112,104,144,72'
p4396
aS'104,105,84,141,32'
p4397
aS'63,75,99,184,35'
p4398
aS'81,90,91,157,27'
p4399
aS'27,87,113,149,30'
p4400
aS'74,61,120,153,26'
p4401
aS'84,103,117,126,25'
p4402
aS'65,119,109,123,31'
p4403
aS'78,125,121,169,56'
p4404
aS'110,113,181,154,64'
p4405
aS'69,102,212,180,52'
p4406
aS'121,110,247,181,65'
p4407
aS'95,100,246,163,44'
p4408
aS'73,49,199,129,42'
p4409
aS'66,70,170,196,56'
p4410
aS'124,97,171,126,26'
p4411
aS'71,91,166,148,31'
p4412
aS'98,83,149,139,27'
p4413
aS'80,122,116,122,116'
p4414
aS'120,117,116,117,116'
p4415
aS'109,87,115,87,115'
p4416
aa(lp4417
S'88,165,13,165,13'
p4418
aS'107,171,10,171,10'
p4419
aS'100,163,35,163,35'
p4420
aS'103,160,39,160,39'
p4421
aS'119,142,23,142,23'
p4422
aS'106,143,43,143,43'
p4423
aS'70,183,45,183,45'
p4424
aS'111,154,52,154,52'
p4425
aS'114,156,54,156,54'
p4426
aasI5
(lp4427
(lp4428
S'43,109,119,31,322'
p4429
aS'34,91,157,15,311'
p4430
aS'24,36,128,29,325'
p4431
aS'35,37,126,33,313'
p4432
aS'44,44,95,37,326'
p4433
aS'25,70,82,34,324'
p4434
aS'4,83,99,27,318'
p4435
aS'32,64,95,40,310'
p4436
aS'36,80,109,42,308'
p4437
aS'27,69,138,36,290'
p4438
aS'21,86,134,38,288'
p4439
aS'38,80,139,31,287'
p4440
aS'41,79,128,13,289'
p4441
aS'23,48,152,46,268'
p4442
aS'55,42,149,40,248'
p4443
aS'26,59,163,31,295'
p4444
aS'17,74,165,38,263'
p4445
aa(lp4446
S'14,45,334,45,334'
p4447
aS'18,60,330,60,330'
p4448
aS'10,59,289,59,289'
p4449
aS'3,44,352,44,352'
p4450
aS'52,52,260,52,260'
p4451
aS'42,30,240,30,240'
p4452
aS'5,72,263,72,263'
p4453
aasI6
(lp4454
(lp4455
S'38,72,132,60,224'
p4456
aS'27,69,133,56,223'
p4457
aS'43,101,131,32,236'
p4458
aS'25,63,97,60,247'
p4459
aS'41,76,130,66,229'
p4460
aS'4,76,109,70,236'
p4461
aS'36,73,115,65,228'
p4462
aS'32,60,106,61,225'
p4463
aS'44,39,120,52,223'
p4464
aS'21,71,151,58,233'
p4465
aS'34,79,151,52,236'
p4466
aS'55,46,168,50,228'
p4467
aS'17,81,171,64,214'
p4468
aS'26,55,160,59,211'
p4469
aS'35,33,151,46,212'
p4470
aS'24,27,160,54,229'
p4471
aS'23,37,157,44,222'
p4472
aS'37,71,95,71,95'
p4473
aa(lp4474
S'5,77,252,74,252'
p4475
aS'11,76,220,76,220'
p4476
aS'23,44,222,44,222'
p4477
aS'44,52,223,52,223'
p4478
aS'46,49,221,49,221'
p4479
aS'26,59,211,59,211'
p4480
aS'50,60,212,60,212'
p4481
aS'13,76,243,76,243'
p4482
aS'31,67,236,67,236'
p4483
aS'58,63,237,63,237'
p4484
aS'34,52,236,52,236'
p4485
aS'56,53,240,53,240'
p4486
aS'51,35,241,35,241'
p4487
aS'9,30,222,30,222'
p4488
aS'47,38,210,38,210'
p4489
aS'53,80,216,80,216'
p4490
aS'39,74,253,74,253'
p4491
aS'8,71,246,71,246'
p4492
aS'6,57,251,57,251'
p4493
aS'42,33,258,33,258'
p4494
aS'0,18,256,18,256'
p4495
aS'52,56,265,56,265'
p4496
aS'45,92,228,92,228'
p4497
aS'12,62,206,62,206'
p4498
aS'29,49,204,49,204'
p4499
aS'7,43,201,43,201'
p4500
aS'33,89,208,89,208'
p4501
aS'2,68,199,68,199'
p4502
aS'16,73,195,73,195'
p4503
aS'57,79,195,79,195'
p4504
aS'30,59,196,59,196'
p4505
aS'15,66,193,66,193'
p4506
aS'19,50,197,50,197'
p4507
aS'28,48,193,48,193'
p4508
aasI7
(lp4509
(lp4510
S'121,90,202,171,25'
p4511
aS'73,25,184,160,24'
p4512
aS'71,50,162,157,36'
p4513
aS'66,49,151,148,46'
p4514
aS'124,78,150,165,49'
p4515
aS'21,63,139,161,42'
p4516
aS'95,82,135,149,53'
p4517
aS'98,61,123,145,37'
p4518
aS'74,45,117,151,42'
p4519
aS'63,50,106,143,25'
p4520
aS'81,52,93,141,36'
p4521
aS'109,54,93,137,40'
p4522
aS'123,124,127,146,30'
p4523
aS'110,108,116,165,33'
p4524
aS'104,52,83,166,27'
p4525
aS'67,57,81,158,39'
p4526
aS'85,60,80,142,39'
p4527
aS'80,66,83,142,44'
p4528
aS'84,77,94,144,48'
p4529
aS'99,80,79,132,47'
p4530
aS'94,72,83,138,48'
p4531
aS'100,72,82,133,47'
p4532
aS'115,112,105,143,60'
p4533
aS'62,104,98,135,56'
p4534
aS'72,99,89,127,58'
p4535
aS'65,101,80,134,57'
p4536
aS'76,96,73,129,53'
p4537
aS'69,67,142,67,142'
p4538
aS'120,76,86,76,86'
p4539
aa(lp4540
S'92,184,50,184,50'
p4541
aS'70,167,39,167,39'
p4542
aS'124,165,49,165,49'
p4543
aS'127,163,47,163,47'
p4544
aS'129,156,56,156,56'
p4545
aS'112,158,60,158,60'
p4546
aS'73,160,24,160,24'
p4547
aS'90,158,24,158,24'
p4548
aS'77,148,26,148,26'
p4549
aS'91,141,32,141,32'
p4550
aS'74,151,42,151,42'
p4551
aS'75,147,40,147,40'
p4552
aS'98,145,37,145,37'
p4553
aS'62,135,56,135,56'
p4554
aS'64,137,52,137,52'
p4555
aS'65,134,57,134,57'
p4556
aS'105,140,56,140,56'
p4557
aS'72,127,58,127,58'
p4558
aS'96,129,58,129,58'
p4559
aS'94,138,48,138,48'
p4560
aS'99,132,47,132,47'
p4561
aS'100,133,47,133,47'
p4562
aS'113,133,44,133,44'
p4563
aS'86,130,42,130,42'
p4564
aS'107,135,17,135,17'
p4565
aS'103,122,20,122,20'
p4566
aS'88,115,10,115,10'
p4567
aS'122,126,71,126,71'
p4568
aS'126,110,70,110,70'
p4569
aS'128,108,53,108,53'
p4570
aassg652
(lp4571
(g654
(g658
S'\xf7\x7f\x12&\x81\xa7\xa4?'
p4572
tp4573
Rp4574
g654
(g658
S'K=\x97_\x11U\xb3?'
p4575
tp4576
Rp4577
tp4578
a(g654
(g658
S'\xba\xe92\xd6\xd8\xa8\xa9\xbf'
p4579
tp4580
Rp4581
g654
(g658
S'#\xd6\xca4\xa8i\xca?'
p4582
tp4583
Rp4584
tp4585
a(g654
(g658
S'\xf7\x7f\x12&\x81\xa7\xa4?'
p4586
tp4587
Rp4588
g654
(g658
S'K=\x97_\x11U\xb3?'
p4589
tp4590
Rp4591
tp4592
a(g654
(g658
S'\xf7\x7f\x12&\x81\xa7\xa4?'
p4593
tp4594
Rp4595
g654
(g658
S'K=\x97_\x11U\xb3?'
p4596
tp4597
Rp4598
tp4599
a(g654
(g658
S'\xf7\x7f\x12&\x81\xa7\xa4?'
p4600
tp4601
Rp4602
g654
(g658
S'K=\x97_\x11U\xb3?'
p4603
tp4604
Rp4605
tp4606
a(g654
(g658
S'\xf2#X\xaa\xb5\x13\x92?'
p4607
tp4608
Rp4609
g654
(g658
S'mp\xaff\xea\x8e\xa2?'
p4610
tp4611
Rp4612
tp4613
a(g654
(g658
S'r\x83\x01\xcf\xa5\x17\xa0?'
p4614
tp4615
Rp4616
g654
(g658
S'\x1f\xe5oeb\t\x87?'
p4617
tp4618
Rp4619
tp4620
a(g654
(g658
S'\x0f\xab\xa0\x93\xd8J\x96?'
p4621
tp4622
Rp4623
g654
(g658
S'h\xbcci\xc2\x92\x91\xbf'
p4624
tp4625
Rp4626
tp4627
a(g654
(g658
S'#\xef\xd3\xf92;\x91\xbf'
p4628
tp4629
Rp4630
g654
(g658
S'\x0bV}m\x03\xe9\xb3\xbf'
p4631
tp4632
Rp4633
tp4634
asg752
(lp4635
g654
(g658
S'\xe2\xe9\xd7\xfb\xb3C\xed?'
p4636
tp4637
Rp4638
ag654
(g658
S'\xed\x9f8\x07j\xa4\xed?'
p4639
tp4640
Rp4641
ag654
(g658
S'\xb3o\xf6\xe8\x03\xce\xec?'
p4642
tp4643
Rp4644
ag654
(g658
S'\xed\x9f8\x07j\xa4\xed?'
p4645
tp4646
Rp4647
ag654
(g658
S'\xed\x9f8\x07j\xa4\xed?'
p4648
tp4649
Rp4650
ag654
(g658
S'\xed\x9f8\x07j\xa4\xed?'
p4651
tp4652
Rp4653
ag654
(g658
S'\xd0\xd8\xc6\xea\xa22\xee?'
p4654
tp4655
Rp4656
ag654
(g658
S'(\x86\xc9BP5\xee?'
p4657
tp4658
Rp4659
ag654
(g658
S'\xe5>\x8b\xf2#\xc1\xee?'
p4660
tp4661
Rp4662
ag654
(g658
S'\x95D\xe6\xa2)\x1c\xef?'
p4663
tp4664
Rp4665
asg796
(dp4666
g798
g799
sg800
g801
sg806
g807
sg808
(lp4667
(lp4668
asg811
g6
(S'\x00\x00\x00\x00\x00\x00'
p4669
tp4670
Rp4671
sg815
g816
ssg824
(lp4672
g826
a(lp4673
g832
ag839
ag836
ag833
ag828
aa(lp4674
g804
ag862
ag805
ag861
ag832
aa(lp4675
g832
ag839
ag836
ag833
ag828
aa(lp4676
g832
ag839
ag836
ag833
ag828
aa(lp4677
g832
ag839
ag836
ag833
ag828
aa(lp4678
g832
ag839
ag836
ag833
ag829
aa(lp4679
g836
ag832
ag829
ag833
ag858
aa(lp4680
g832
ag836
ag829
ag833
ag858
aa(lp4681
g832
ag836
ag829
ag833
ag839
aasg847
(g654
(g658
S'\xb8p\x8a\xb8f\xa0\xb2?'
p4682
tp4683
Rp4684
g654
(g658
S'\xc0\x8fE\x1b \xe8\xbc?'
p4685
tp4686
Rp4687
tp4688
sg855
g856
ss.