(dp0
I1
(dp1
S'initLayoutPoint'
p2
(cnumpy.core.multiarray
scalar
p3
(cnumpy
dtype
p4
(S'f8'
p5
I0
I1
tp6
Rp7
(I3
S'<'
p8
NNNI-1
I-1
I0
tp9
bS'lM\xccR"A\xb1\xbf'
p10
tp11
Rp12
g3
(g7
S'=\xa8A\x8dK\xbc\xba\xbf'
p13
tp14
Rp15
tp16
sS'layouts'
p17
(lp18
(g3
(g7
S'\xc3\\|\x0e\xe2I\xa5\xbf'
p19
tp20
Rp21
g3
(g7
S'\x98S\xe05\xeb\x04\xbc\xbf'
p22
tp23
Rp24
tp25
a(g3
(g7
S' \x83\xad@\x9c\x07\xa0\xbf'
p26
tp27
Rp28
g3
(g7
S'x\x9cl^\xc3E\xbc\xbf'
p29
tp30
Rp31
tp32
a(g3
(g7
S'L\xf8\xa2\xde\x84%\x91\xbf'
p33
tp34
Rp35
g3
(g7
S'\xcd\xfdj\t\xc3F\xbc\xbf'
p36
tp37
Rp38
tp39
a(g3
(g7
S'\x19\xf3\x87\x91%\xdc`?'
p40
tp41
Rp42
g3
(g7
S'1\x1b\x02RGI\xb2\xbf'
p43
tp44
Rp45
tp46
a(g3
(g7
S'\xab\xe8\xb9\xff\xc5*\x9c?'
p47
tp48
Rp49
g3
(g7
S'-\x07\xf7,\xc0\x8a\xb0\xbf'
p50
tp51
Rp52
tp53
a(g3
(g7
S'\x91\xb1\xc3\xdf\x12\xfd\x9b?'
p54
tp55
Rp56
g3
(g7
S'\x8a\x90/2\xd9jr\xbf'
p57
tp58
Rp59
tp60
a(g3
(g7
S'!\xba\xf0\r\xbb\xdb\x9b?'
p61
tp62
Rp63
g3
(g7
S'\xe9I\x02\x13\xa0\xca\xa3?'
p64
tp65
Rp66
tp67
a(g3
(g7
S"c\x8c'\xd9\x12\xfd\x9b?"
p68
tp69
Rp70
g3
(g7
S'\x96~\x96\x15\xd9jr\xbf'
p71
tp72
Rp73
tp74
a(g3
(g7
S'\xcd\xf0\xad\x19i\xea\xaa?'
p75
tp76
Rp77
g3
(g7
S'Cu\x9e\xa8\x05\xba\x97\xbf'
p78
tp79
Rp80
tp81
a(g3
(g7
S'e_\x10\xde\x12\xfd\x9b?'
p82
tp83
Rp84
g3
(g7
S'\xa4%\xd4*\xd9jr\xbf'
p85
tp86
Rp87
tp88
a(g3
(g7
S'\xca\xe7\xd6\x89d\xdd\xa3?'
p89
tp90
Rp91
g3
(g7
S'L\x08\x159\x80\x02\x8e?'
p92
tp93
Rp94
tp95
a(g3
(g7
S'f-o9\x86\xcf\xb2?'
p96
tp97
Rp98
g3
(g7
S'u\xde\x03Beh\x8a\xbf'
p99
tp100
Rp101
tp102
a(g3
(g7
S'3\x10\xa1\x04\xb1\xbe\xb1?'
p103
tp104
Rp105
g3
(g7
S'\xd8G\x84\xcb\xdc\xc4\xb0?'
p106
tp107
Rp108
tp109
asS'terms'
p110
(lp111
S'Alcohol'
p112
aS'Malic_acid'
p113
aS'Ash'
p114
aS'Alcalinity_of_ash'
p115
aS'Magnesium'
p116
aS'Total_phenols'
p117
aS'Flavanoids'
p118
aS'Nonflavanoid_phenols'
p119
aS'Proanthocyanins'
p120
aS'Color_intensity'
p121
aS'Hue'
p122
aS'OD280/OD315_of_diluted_wines'
p123
aS'Proline'
p124
aS'noise1'
p125
aS'noise2'
p126
aS'noise3'
p127
aS'noise4'
p128
aS'noise5'
p129
aS'noise6'
p130
aS'noise7'
p131
aS'noise8'
p132
aS'noise9'
p133
aS'noise10'
p134
asS'logs'
p135
(lp136
(cdatetime
time
p137
(S'\x00\x08\x1a\x00\x00\x00'
p138
tp139
Rp140
S'GO1'
p141
((lp142
(I123
I131
tp143
a(I156
I177
tp144
a(lp145
F0.6345595992465198
aF0.14948494697637027
aF0.13898455780114483
aF0.06495532159447637
aF0.07238919630579765
aF0.5701598193519722
aF0.755193923965958
aF0.785035427140999
aF0.909086855433969
aF0.4032551775408969
aF0.7623507943951361
aF0.014576785431556383
aF0.7123918419322471
aF0.18963761313977967
aF0.31437187194102467
aF0.6572942255012972
aF0.9207436795839482
aF0.0365627730236896
aF0.9668053062433722
aF0.5915922390650096
aF0.5073783118776005
aF0.4739987473242139
aF0.43350818030188776
atp146
tp147
a(g137
(S'\x00\x08\x1b\x00\x00\x00'
p148
tp149
Rp150
S'DF1'
p151
(lp152
F0.3093351452472025
aF0.24960715637419428
aF0.6660852058204922
aF0.15440253117958513
aF0.7876394464028892
aF0.6279674689028498
aF0.585181895395292
aF0.20013676440832628
aF0.128137270612958
aF0.7342754652349486
aF0.5152687269117484
aF0.8383341949086197
aF0.8911529841378645
aF0.15911894311427865
aF0.2147266158554597
aF0.5336419415105194
aF0.5192676176983442
aF0.2887625104146925
aF0.2606393795453732
aF0.8836198629969751
aF0.33610214455196785
aF0.5453821846088022
aF0.9777847158386059
atp153
a(g137
(S'\x00\x08\x1f\x00\x00\x00'
p154
tp155
Rp156
g141
((lp157
g143
ag144
a(lp158
F0.3394382461185399
aF0.27076156023167985
aF0.02978651361013973
aF0.29309518948550917
aF0.32917200827147697
aF0.7984671237412705
aF0.2640787758532612
aF0.711027232990052
aF0.5040946782331018
aF0.3157659171886906
aF0.3037547873404345
aF0.056544228121224394
aF0.2931182718281041
aF0.8012024765103993
aF0.7526072589394672
aF0.21374247383816192
aF0.9803295498448816
aF0.754730214641545
aF0.7109964932366961
aF0.5768263646612664
aF0.13936524364713065
aF0.34267937348248356
aF0.5549882341017898
atp159
tp160
a(g137
(S'\x00\x08 \x00\x00\x00'
p161
tp162
Rp163
g151
(lp164
F0.4363787970488192
aF0.21746314521492605
aF0.399707641289634
aF0.19839968741503733
aF0.4324169484881182
aF0.24992077481637975
aF0.10519117248188947
aF0.003170080318689039
aF0.5827889812273894
aF0.6943239980082028
aF0.36998823318547436
aF0.1395202392744126
aF0.6494580004027123
aF0.4766211384208592
aF0.7710236957682027
aF0.19453885604909749
aF0.7120835162038018
aF0.26271123124674445
aF0.142007235899952
aF0.33144962595633687
aF0.6839753755637469
aF0.09280595854204321
aF0.27282974592358145
atp165
a(g137
(S'\x00\x08$\x00\x00\x00'
p166
tp167
Rp168
g141
((lp169
g143
ag144
a(lp170
F0.8313253083932194
aF0.6232794180446152
aF0.9709997871654735
aF0.37644514459809386
aF0.1380998476553642
aF0.3771899025615957
aF0.5220349076149484
aF0.03538670190040416
aF0.567286014878189
aF0.10353748749139324
aF0.3641297772192478
aF0.7628398924571782
aF0.4386561178884596
aF0.6120198288240892
aF0.4975115000038254
aF0.9301801991345353
aF0.6762885812306494
aF0.24985945590213732
aF0.8017168997452855
aF0.8558923070383283
aF0.7082650718662561
aF0.2481533765258036
aF0.9974459984472118
atp171
tp172
a(g137
(S'\x00\x08%\x00\x00\x00'
p173
tp174
Rp175
g151
(lp176
F0.022395181456771107
aF0.19873863281213833
aF0.3332520588971877
aF0.5557429174279414
aF0.09704450467097436
aF0.974749357165501
aF0.27418747389055376
aF0.05424675366529308
aF0.034132675213328745
aF0.3649849704540604
aF0.42989859203597247
aF0.8232093895163757
aF0.9845678947184354
aF0.00209574657453393
aF0.6094808765845368
aF0.3673652995028984
aF0.892668511366513
aF0.5717819664401755
aF0.38182705994508803
aF0.10856421570312158
aF0.9483605260330485
aF0.6562032867333526
aF0.4836646083363334
atp177
a(g137
(S'\x00\x08)\x00\x00\x00'
p178
tp179
Rp180
g141
((lp181
g143
ag144
a(lp182
F0.8620148214892477
aF0.7231586777447755
aF0.6140053364172641
aF0.27203221409094547
aF0.482008563143969
aF0.28270996721314534
aF0.2765480679102772
aF0.0213654850798336
aF0.6658041661985193
aF0.3699493016933708
aF0.5033490375812606
aF0.32873581262101803
aF0.9054279540621165
aF0.7108000630470764
aF0.16237646257204918
aF0.06305457689533733
aF0.8083733184050479
aF0.17964736534897807
aF0.1565036368750472
aF0.749600883667778
aF0.6884801871962598
aF0.5338621063257839
aF0.4125663319025832
atp183
tp184
a(g137
(S'\x00\x08*\x00\x00\x00'
p185
tp186
Rp187
g151
(lp188
F0.8378851715131116
aF0.2143180394953228
aF0.01977314637443961
aF0.8954917151349981
aF0.08829541271669439
aF0.30552212464414397
aF0.9414107284845395
aF0.8956735088528668
aF0.8113330589613059
aF0.7881184557761627
aF0.20888665487582125
aF0.6455691505643995
aF0.3028854289435884
aF0.4755819760318427
aF0.4392148170867519
aF0.8793597090289975
aF0.3454402209650813
aF0.25203434280219184
aF0.5099342446487141
aF0.5257351915804883
aF0.379157925224489
aF0.5308990269324735
aF0.5223343673029935
atp189
a(g137
(S'\x00\x08.\x00\x00\x00'
p190
tp191
Rp192
g141
((lp193
g143
ag144
a(lp194
F0.37442030076831745
aF0.17171369104970924
aF0.44193475855469744
aF0.9035044342706592
aF0.8223575836177789
aF0.15467445404317914
aF0.3926777647206726
aF0.7698858980861211
aF0.1393353059019795
aF0.5836105345553344
aF0.9579510113352778
aF0.9232710118655181
aF0.5463897918212952
aF0.49646244849181687
aF0.27220661796181544
aF0.35496302611100206
aF0.17934309508265756
aF0.6681659360421937
aF0.693978709378699
aF0.45493038750540393
aF0.4432457992736961
aF0.1911428984726513
aF0.989259103280305
atp195
tp196
a(g137
(S'\x00\x08/\x00\x00\x00'
p197
tp198
Rp199
g151
(lp200
F0.37650664873804396
aF0.33919478153378013
aF0.8389245203190656
aF0.20550495652542877
aF0.679938194248517
aF0.4479247357471744
aF0.50673593643036
aF0.7094140170098593
aF0.5068607801682875
aF0.31645739543408347
aF0.46847842769926407
aF0.9677827374789127
aF0.7009618244308948
aF0.672138059297832
aF0.09279948156782847
aF0.5750015012803558
aF0.9171252016848938
aF0.40426463654566336
aF0.7566428248525802
aF0.20551874889263377
aF0.5538857190561396
aF0.9714808998672714
aF0.11397802519643452
atp201
a(g137
(S'\x00\x083\x00\x00\x00'
p202
tp203
Rp204
g141
((lp205
g143
ag144
a(lp206
F0.030505687597998432
aF0.9756373141276805
aF0.0338837779380623
aF0.10655871937978423
aF0.8446069640056026
aF0.5219059187148989
aF0.9511557017119829
aF0.5775600474278655
aF0.44593416318846657
aF0.6091116487987974
aF0.7512552476058886
aF0.7550040086695038
aF0.48929084433050196
aF0.21828743921204719
aF0.31055967019901354
aF0.5895667800271562
aF0.6052489729670423
aF0.04760999295835622
aF0.8468800486188007
aF0.841009821496585
aF0.44157666471938295
aF0.8670421388867542
aF0.43812586797120934
atp207
tp208
a(g137
(S'\x00\x084\x00\x00\x00'
p209
tp210
Rp211
g151
(lp212
F0.5513236922602385
aF0.023451884383155597
aF0.6959701716013461
aF0.27584386713148246
aF0.11999025589355661
aF0.8615823779234354
aF0.7560314407707036
aF0.2156780936783298
aF0.4945652005202896
aF0.3204660032337876
aF0.7243827289364183
aF0.03335078120267376
aF0.765378307321435
aF0.8923558428891755
aF0.6692310372610852
aF0.27512905195430604
aF0.7740280329442066
aF0.16320783815531714
aF0.24765061876027183
aF0.8973758289880645
aF0.4695125360344595
aF0.6004741985635017
aF0.13686763446989458
atp213
a(g137
(S'\x00\x088\x00\x00\x00'
p214
tp215
Rp216
g141
((lp217
g143
ag144
a(lp218
F0.18632364494924913
aF0.699976919269732
aF0.008465280994178204
aF0.5635573893344432
aF0.8123430804105587
aF0.1813220855778539
aF0.8311971753968611
aF0.039996905988234244
aF0.8920338684731468
aF0.356787114931966
aF0.5454476431000571
aF0.7092276543061947
aF0.6541105090846205
aF0.34432003615588136
aF0.43432223951819215
aF0.19465164070053165
aF0.3240472028880621
aF0.8369511020408883
aF0.3007902391556806
aF0.8563560613404626
aF0.484719441841742
aF0.17993793822753867
aF0.20238544899859012
atp219
tp220
a(g137
(S'\x00\x089\x00\x00\x00'
p221
tp222
Rp223
g151
(lp224
F0.4820235083204424
aF0.1213975139686354
aF0.47129639535558454
aF0.19151785119233755
aF0.19642440083498747
aF0.5125348242098509
aF0.1247900489392495
aF0.26615402273932465
aF0.8029582678627354
aF0.5450500941215899
aF0.2870076839588951
aF0.4783029963591158
aF0.19641534024105944
aF0.22345492843919357
aF0.7235021203795456
aF0.728378422659453
aF0.9553331153059098
aF0.9936445084019111
aF0.1479413917137361
aF0.14199184153477729
aF0.9308582879111474
aF0.4926501496369592
aF0.38779551279429914
atp225
a(g137
(S'\x00\t\x01\x00\x00\x00'
p226
tp227
Rp228
g141
((lp229
g143
ag144
a(lp230
F0.3481512671240038
aF0.24071700993819656
aF0.49301501146277305
aF0.2396566778249103
aF0.17875243961374365
aF0.4360041784046992
aF0.06550105101890269
aF0.23443615487686664
aF0.7061507796652974
aF0.8674498208449195
aF0.8318635106788627
aF0.770607822415011
aF0.16881840332322062
aF0.3251667559327539
aF0.10821081054312831
aF0.7082019421846051
aF0.6480412446752913
aF0.7494082116528106
aF0.7361389339536957
aF0.9127168846054282
aF0.4779286983698807
aF0.5955043349991823
aF0.4635242871829781
atp231
tp232
a(g137
(S'\x00\t\x02\x00\x00\x00'
p233
tp234
Rp235
g151
(lp236
F0.8281595986724084
aF0.6776370125502506
aF0.14114493824785124
aF0.9682876429531645
aF0.7101982394918346
aF0.1110347903146558
aF0.3399542289603047
aF0.10176181942782825
aF0.8823102653502912
aF0.4925161903495171
aF0.12026533814295648
aF0.45565801961370933
aF0.8463804665380291
aF0.22198058445673863
aF0.9611621465955932
aF0.9030276386958696
aF0.10473310801654179
aF0.5186650546551845
aF0.9516219259107601
aF0.23630807620574223
aF0.4925115123835171
aF0.4410307321106558
aF0.9237615288465142
atp237
a(g137
(S'\x00\t\x06\x00\x00\x00'
p238
tp239
Rp240
g141
((lp241
g143
ag144
a(lp242
F0.26074616128466166
aF0.05863776747949878
aF0.6404534333419927
aF0.7349466891789935
aF0.25109233781563645
aF0.8388510469308692
aF0.2526673655957571
aF0.8023634648766981
aF0.052360207662634606
aF0.09814605141656962
aF0.9242255324003984
aF0.17111223454262336
aF0.1367041206047308
aF0.8472031168186017
aF0.22673826627376692
aF0.36292760238999955
aF0.0630668916729179
aF0.6983008054459924
aF0.36204920590892686
aF0.3656164636683824
aF0.5275994166649628
aF0.2981145218453891
aF0.47053089675323057
atp243
tp244
a(g137
(S'\x00\t\x07\x00\x00\x00'
p245
tp246
Rp247
g151
(lp248
F0.032479849408144745
aF0.7725601309738056
aF0.26793707874522577
aF0.12297121689101387
aF0.630345004143494
aF0.7430102881864069
aF0.23523346015919144
aF0.9447492945014084
aF0.3691711045556215
aF0.5757126622691346
aF0.03925621225558551
aF0.6893807934745227
aF0.8919521359379768
aF0.5092654260969711
aF0.8001449493726729
aF0.9023881758728294
aF0.18432112613869422
aF0.5601215674061976
aF0.24285678777291297
aF0.3943594694839978
aF0.031019043452677808
aF0.8658605658354283
aF0.19451744025950013
atp249
a(g137
(S'\x00\t\x0b\x00\x00\x00'
p250
tp251
Rp252
g141
((lp253
g143
ag144
a(lp254
F0.8200053444271664
aF0.11972581180808528
aF0.391199577699317
aF0.3503404009123805
aF0.5282538099916206
aF0.08842476976825409
aF0.17137926043793006
aF0.9338139592800456
aF0.9495746796670916
aF0.6448472535522889
aF0.5027591737657952
aF0.6331941789863188
aF0.5945340884897837
aF0.23644651194355815
aF0.9685615992061106
aF0.38801390719897677
aF0.7072298233842577
aF0.7525581935250295
aF0.9336418021228631
aF0.5479558613332037
aF0.3403048075147963
aF0.15725725184595507
aF0.1750148580543237
atp255
tp256
a(g137
(S'\x00\t\x0c\x00\x00\x00'
p257
tp258
Rp259
g151
(lp260
F0.05917370752818385
aF0.5708410854780982
aF0.7549239564567858
aF0.24746397965897982
aF0.9211296750963469
aF0.027383796314864983
aF0.33766566091764205
aF0.3012524826389319
aF0.23756988336310736
aF0.9996296258205885
aF0.8894966906225679
aF0.28195081660036947
aF0.06684202814077089
aF0.9662320093382826
aF0.3056741042752643
aF0.43280410727765606
aF0.6808004588357534
aF0.8114879272299343
aF0.2818072340819845
aF0.5115304024818382
aF0.6708719922803876
aF0.4396979997021586
aF0.24385315322875267
atp261
a(g137
(S'\x00\t\x10\x00\x00\x00'
p262
tp263
Rp264
g141
((lp265
g143
ag144
a(lp266
F0.7205355760280971
aF0.1524899352821807
aF0.11454022880480286
aF0.2750099684065246
aF0.16305682784328646
aF0.6753044409452245
aF0.13467414001837585
aF0.06487474406000548
aF0.7897958209328879
aF0.7234281630082402
aF0.051883225654082876
aF0.9565040612389788
aF0.8086331455550453
aF0.03347822016825763
aF0.9581947946323601
aF0.9414505337175983
aF0.544886612357513
aF0.7804544779937943
aF0.9674322788225548
aF0.2991520062573414
aF0.0706545515165442
aF0.38455039043150296
aF0.36477389884110223
atp267
tp268
a(g137
(S'\x00\t\x11\x00\x00\x00'
p269
tp270
Rp271
g151
(lp272
F0.8324539489683632
aF0.8254229409573273
aF0.7794913607747502
aF0.3498349307962567
aF0.29460397380891457
aF0.9261870924032151
aF0.1876189332444237
aF0.25836836064229307
aF0.6572415171425848
aF0.9056606367125275
aF0.2657136664608827
aF0.3134217480230992
aF0.6705685912394143
aF0.894568553014478
aF0.11712254000289068
aF0.15367970515060936
aF0.3641253063114426
aF0.20463856175641149
aF0.1557128955294813
aF0.35845137877791244
aF0.3191607109378831
aF0.7292433117731384
aF0.3030607693577392
atp273
a(g137
(S'\x00\t\x15\x00\x00\x00'
p274
tp275
Rp276
g141
((lp277
g143
ag144
a(lp278
F0.8522276993335345
aF0.3995507330700304
aF0.726290484319692
aF0.6339999835715926
aF0.6446182815760555
aF0.251012072550553
aF0.1647653980580891
aF0.4007125809752963
aF0.2829954501090636
aF0.22444166664475662
aF0.9967779644254178
aF0.2304560015174889
aF0.3531452832065608
aF0.3789717840278971
aF0.23458994140179257
aF0.3460579829213303
aF0.07809589649889292
aF0.20794362593311033
aF0.5428912282619351
aF0.8726197394241022
aF0.228972632160248
aF0.0894872516731352
aF0.128067374708992
atp279
tp280
a(g137
(S'\x00\t\x16\x00\x00\x00'
p281
tp282
Rp283
g151
(lp284
F0.6908304095009696
aF0.12170243469627606
aF0.15461198899154982
aF0.05574597994731123
aF0.9257110517856365
aF0.5900365805370366
aF0.6294008329917502
aF0.47672851190159615
aF0.4986779447359311
aF0.5494340662972822
aF0.75187615326407
aF0.14915481555838062
aF0.43086433063508756
aF0.5367913624762606
aF0.06550153894096977
aF0.5377963884465846
aF0.7896374732131201
aF0.38472351627924384
aF0.9880484435357951
aF0.9573275190592649
aF0.4696782235796738
aF0.34014514554851083
aF0.41680701395433617
atp285
a(g137
(S'\x00\t\x1a\x00\x00\x00'
p286
tp287
Rp288
g141
((lp289
g143
ag144
a(lp290
F0.6481193323903492
aF0.47155324756290495
aF0.0079743012113207
aF0.2422001299768446
aF0.11122614080776994
aF0.14792569279471568
aF0.9379562368135264
aF0.6592395159379048
aF0.7702824203044367
aF0.07767049567799234
aF0.7669973819889303
aF0.7046068923515093
aF0.1588966625996744
aF0.6629120123201483
aF0.03503839206195425
aF0.8098438654746862
aF0.0452257999490866
aF0.06721044877159488
aF0.7874515956746461
aF0.5588244977541823
aF0.7477560664410966
aF0.027278876010853548
aF0.6923993561769183
atp291
tp292
a(g137
(S'\x00\t\x1b\x00\x00\x00'
p293
tp294
Rp295
g151
(lp296
F0.6124397538713151
aF0.8360853773839814
aF0.03211278502774484
aF0.9690583321777809
aF0.10873982382154124
aF0.7544823934194087
aF0.2263564289078207
aF0.34381196478211307
aF0.8543477777974032
aF0.6236749829013666
aF0.2251762289427791
aF0.16730053160974867
aF0.12699969397939426
aF0.9000812787398774
aF0.6209821355933749
aF0.7792978415204275
aF0.0003112798596589528
aF0.28730215973469286
aF0.5842995073319203
aF0.4418591625508459
aF0.1450675374965794
aF0.6944447043346541
aF0.9817145368771077
atp297
asS'observations'
p298
(dp299
S'gender'
p300
S'm'
p301
sS'comments'
p302
(lp303
g113
ag114
ag115
ag116
asS'job'
p304
S'student'
p305
sS'insight_names'
p306
(lp307
(lp308
asS'starttime'
p309
g137
(S'\x00\x00\x00\x00\x00\x00'
p310
tp311
Rp312
sS'insights'
p313
(dp314
g313
(dp315
S'notes'
p316
S'xyz'
p317
sg114
I1
sS'time'
p318
g137
(S'\x00\x08#\x00\x00\x00'
p319
tp320
Rp321
sssssI2
(dp322
g2
(g3
(g7
S'\xaei\xccR"A\xb1\xbf'
p323
tp324
Rp325
g3
(g7
S'k\x94A\x8dK\xbc\xba\xbf'
p326
tp327
Rp328
tp329
sg17
(lp330
(g3
(g7
S'\x8ec:\x8c\x85\xf7\xa3\xbf'
p331
tp332
Rp333
g3
(g7
S'\xf0\xce\xff\x88v\x0c\xb7\xbf'
p334
tp335
Rp336
tp337
a(g3
(g7
S"&\xec\x1a\x91'\xd1\x97\xbf"
p338
tp339
Rp340
g3
(g7
S'\xde\x82W[\x96O\xa1\xbf'
p341
tp342
Rp343
tp344
a(g3
(g7
S'\x85\x10S;\x1f\xa8\x94\xbf'
p345
tp346
Rp347
g3
(g7
S'\xe74}\xbf\xad\xa9\x81?'
p348
tp349
Rp350
tp351
a(g3
(g7
S'x\x9eB\xb8\xff\x1c{\xbf'
p352
tp353
Rp354
g3
(g7
S'\xcas\xfd4]U\x9e?'
p355
tp356
Rp357
tp358
a(g3
(g7
S'b\x9b\x0f\xfe^P\xb6?'
p359
tp360
Rp361
g3
(g7
S'\xf0\xdc\xc9,\xd6\xc7~\xbf'
p362
tp363
Rp364
tp365
a(g3
(g7
S'\xe5c;X5v\xb2?'
p366
tp367
Rp368
g3
(g7
S'L5\xdc\xa4n\x94\x9c?'
p369
tp370
Rp371
tp372
a(g3
(g7
S'T$\x1c\xa6\xc3\x05\xb3?'
p373
tp374
Rp375
g3
(g7
S'z\xe8\xb7\x16\xeaJp\xbf'
p376
tp377
Rp378
tp379
a(g3
(g7
S'8\x0b\xaa\xc0\x1e\xd9\xb1?'
p380
tp381
Rp382
g3
(g7
S'\xad\x1e,\x039\rb?'
p383
tp384
Rp385
tp386
asg110
g111
sg135
(lp387
(g137
(S'\x00\x08\x1a\x00\x00\x00'
p388
tp389
Rp390
g141
((lp391
g143
ag144
a(lp392
F0.23469801549748026
aF0.17585723396903152
aF0.18957792997069123
aF0.06317042055606292
aF0.1296447091375199
aF0.5747900635859977
aF0.3729276503054716
aF0.25237193410529224
aF0.47661835761937665
aF0.9366384423869047
aF0.15823951183288276
aF0.5208812952075899
aF0.03174250738465911
aF0.9524360794474427
aF0.8674252681269592
aF0.610489153059218
aF0.5609355788921917
aF0.6204879733328376
aF0.12491497008329844
aF0.6411630241119142
aF0.2311920774659355
aF0.783202419369277
aF0.8952318222474156
atp393
tp394
a(g137
(S'\x00\x08\x1b\x00\x00\x00'
p395
tp396
Rp397
g151
(lp398
F0.40550402694023135
aF0.24432369493200856
aF0.44060670200528707
aF0.29994784111002515
aF0.42028309972817113
aF0.3262405566753097
aF0.2450173126181565
aF0.7534384469328611
aF0.25454564392886836
aF0.9450108086415291
aF0.6963035825997385
aF0.17510802427114558
aF0.45391280861710337
aF0.43659500949109264
aF0.49300070843101274
aF0.441112839814391
aF0.8831799402777382
aF0.45643522216095245
aF0.8302101787837061
aF0.4482020358649399
aF0.8950410404820631
aF0.9656303894718856
aF0.9417082230730361
atp399
a(g137
(S'\x00\x08\x1f\x00\x00\x00'
p400
tp401
Rp402
g141
((lp403
g143
ag144
a(lp404
F0.19275099459660439
aF0.1598496280458812
aF0.6630984626869856
aF0.027888220230946947
aF0.6180060093113039
aF0.5806582711715964
aF0.759326408141626
aF0.9695304462445938
aF0.08352955067537748
aF0.9633731932309628
aF0.11003474605975017
aF0.08578681249597864
aF0.3270975730490788
aF0.964186634703115
aF0.9828879172950492
aF0.09340281563089414
aF0.28379994610716996
aF0.368096520911272
aF0.20993287363203583
aF0.5387363289517695
aF0.9049371241689679
aF0.5320623644355852
aF0.6553872423298389
atp405
tp406
a(g137
(S'\x00\x08 \x00\x00\x00'
p407
tp408
Rp409
g151
(lp410
F0.03160473029150246
aF0.1848062323682248
aF0.34335318790219804
aF0.17276847403055684
aF0.7932406703228553
aF0.9196720059653721
aF0.9292617646027634
aF0.09688247622178281
aF0.08651427284724533
aF0.29342554736335535
aF0.8183737676729341
aF0.37389130962012307
aF0.46076053290576036
aF0.9458595494059278
aF0.3542898163676984
aF0.13606774833534496
aF0.5850329698102161
aF0.13498385229516063
aF0.7790203535960638
aF0.5939262129833774
aF0.7017978421373051
aF0.7203002534810155
aF0.44451623618208425
atp411
a(g137
(S'\x00\x08$\x00\x00\x00'
p412
tp413
Rp414
g141
((lp415
g143
ag144
a(lp416
F0.7021895671820119
aF0.8486450790655189
aF0.10438640014788847
aF0.8060669958887835
aF0.08733705868901054
aF0.9334328540378038
aF0.29964664134718966
aF0.007836084910473717
aF0.016877017889916024
aF0.7172007571989045
aF0.6951751388799391
aF0.30306052030342123
aF0.4596403046069997
aF0.6839386660376714
aF0.585291447355821
aF0.6080073263662094
aF0.13467650348000737
aF0.4509628602218262
aF0.7138232906450255
aF0.2638396829855545
aF0.5270041359889002
aF0.11989368039159953
aF0.609334040237541
atp417
tp418
a(g137
(S'\x00\x08%\x00\x00\x00'
p419
tp420
Rp421
g151
(lp422
F0.6432467834252483
aF0.48224339613711686
aF0.22643973930269912
aF0.6605190403957275
aF0.4782755462298005
aF0.380791399752928
aF0.7311584128933845
aF0.6652577843852657
aF0.0073376270670232335
aF0.2070928622173901
aF0.40339203392289
aF0.4123896841061371
aF0.5697276941738979
aF0.9214042531954368
aF0.6987356432914481
aF0.3773575915770323
aF0.24224235533844563
aF0.47800625426291
aF0.2005589626193034
aF0.6077770325153932
aF0.4261611821660709
aF0.24777024756682076
aF0.8422359361287998
atp423
a(g137
(S'\x00\x08)\x00\x00\x00'
p424
tp425
Rp426
g141
((lp427
g143
ag144
a(lp428
F0.6559046634835192
aF0.1799797272967082
aF0.44760036947467263
aF0.7289103801520815
aF0.987458666248803
aF0.9296700530680545
aF0.5990181573008858
aF0.563469320904511
aF0.7441396116121102
aF0.4320656664014374
aF0.6648185081771754
aF0.17071639067772593
aF0.674147838451278
aF0.22629629409079421
aF0.3915782125994717
aF0.31432583132648795
aF0.517772928600404
aF0.17379125036433773
aF0.10990610118251964
aF0.998773366379906
aF0.9483163224942801
aF0.7484047091300363
aF0.5141262737792954
atp429
tp430
a(g137
(S'\x00\x08*\x00\x00\x00'
p431
tp432
Rp433
g151
(lp434
F0.2177613867264654
aF0.837792075854301
aF0.6120045451715005
aF0.8102961820323028
aF0.5443046273690743
aF0.9262358742635806
aF0.324372122866168
aF0.16682868281692376
aF0.8301159556452974
aF0.4681796232256983
aF0.35326833610737696
aF0.7901446605432826
aF0.9096154115311028
aF0.0625700808785783
aF0.9081237523763273
aF0.5567136532259643
aF0.6165179025008996
aF0.6169134337149698
aF0.38283099500607787
aF0.3366420228776976
aF0.3431773024824595
aF0.2072791097977753
aF0.48473041603931477
atp435
a(g137
(S'\x00\x08.\x00\x00\x00'
p436
tp437
Rp438
g141
((lp439
g143
ag144
a(lp440
F0.9263121538772703
aF0.47719207504732
aF0.7232312994240024
aF0.0287755036156625
aF0.303341502190943
aF0.07990728807974101
aF0.9666596946931527
aF0.6760097080030716
aF0.011836674908640266
aF0.8019394371021894
aF0.16952805472915566
aF0.5665144651634333
aF0.9944814618280275
aF0.8595072956262815
aF0.11144023882269793
aF0.39413776778231047
aF0.23849240050995568
aF0.005424224479047335
aF0.54774007173986
aF0.5009264403927892
aF0.007169991794231723
aF0.27775362545339355
aF0.21151842149937905
atp441
tp442
a(g137
(S'\x00\x08/\x00\x00\x00'
p443
tp444
Rp445
g151
(lp446
F0.04855576505593184
aF0.21224734679454438
aF0.6029485656038265
aF0.7791586109566938
aF0.5561902675457535
aF0.9586646918802707
aF0.9837044706493588
aF0.8319805331648783
aF0.6350155911247669
aF0.10407486164118851
aF0.32831523000234186
aF0.18694359693916263
aF0.7240023302934646
aF0.7297877095719947
aF0.11621844334873754
aF0.49900643715318205
aF0.11688879900750415
aF0.6446831437709515
aF0.33556074385341705
aF0.23003033017216368
aF0.4119383998513525
aF0.03945095412947497
aF0.7598721804395693
atp447
a(g137
(S'\x00\x083\x00\x00\x00'
p448
tp449
Rp450
g141
((lp451
g143
ag144
a(lp452
F0.3286819967832778
aF0.8613083956673465
aF0.16929369806873296
aF0.34769446476856525
aF0.7096320100262856
aF0.10053491800698278
aF0.7860670808124222
aF0.43050454098134006
aF0.8577028794582428
aF0.40465710963182533
aF0.8729081804895146
aF0.9125105542076416
aF0.025720285937485654
aF0.3810766983545564
aF0.7561101059776898
aF0.2799882405919175
aF0.2699432195431761
aF0.8609055738997967
aF0.01428065132131262
aF0.4012124305309813
aF0.8194664929072962
aF0.7729107190282875
aF0.5672654796576402
atp453
tp454
a(g137
(S'\x00\x084\x00\x00\x00'
p455
tp456
Rp457
g151
(lp458
F0.2799501738199749
aF0.8263402790052431
aF0.6569643727414188
aF0.9126119469865167
aF0.5193236532759306
aF0.6026514930183241
aF0.14653065487214922
aF0.011992134519195563
aF0.9804958130847605
aF0.303935310319454
aF0.04792492516547642
aF0.4693896321842512
aF0.155740565618667
aF0.5568559408329861
aF0.5440655278641129
aF0.2094794967345498
aF0.8052803928539943
aF0.7879977108929469
aF0.22010657091122876
aF0.5591986309936064
aF0.9204983727420794
aF0.9346121348469469
aF0.47455212348753795
atp459
a(g137
(S'\x00\x088\x00\x00\x00'
p460
tp461
Rp462
g141
((lp463
g143
ag144
a(lp464
F0.2796249355305297
aF0.07814525934007144
aF0.3165556553913633
aF0.15669290889378762
aF0.359365164277352
aF0.19695619101226824
aF0.3826041139369081
aF0.1705677399041029
aF0.6679328910006781
aF0.7043460882082945
aF0.7033317779378706
aF0.9403224444379616
aF0.34074748697679413
aF0.21533038995795584
aF0.9274093583906058
aF0.2017311309521186
aF0.017046161497273116
aF0.31605629863276985
aF0.009635143195423579
aF0.3727757598446385
aF0.8876454729168403
aF0.6368352406202502
aF0.29347662665034024
atp465
tp466
a(g137
(S'\x00\x089\x00\x00\x00'
p467
tp468
Rp469
g151
(lp470
F0.5367089563900123
aF0.9435454279474029
aF0.5037585769276974
aF0.7874925296977776
aF0.3764751242957777
aF0.10225473264665663
aF0.6701333801929151
aF0.13822023310252263
aF0.6973002212315644
aF0.24620252344999116
aF0.5688900115249585
aF0.6300526059835676
aF0.5913107800972693
aF0.6453432473927044
aF0.4006404338091176
aF0.8483388611254885
aF0.7803865052467714
aF0.01696056983408456
aF0.8236598163240167
aF0.42817017276747305
aF0.18698554559978242
aF0.9441187599863292
aF0.6751908886611369
atp471
a(g137
(S'\x00\t\x01\x00\x00\x00'
p472
tp473
Rp474
g141
((lp475
g143
ag144
a(lp476
F0.4607059138881958
aF0.8433086437556199
aF0.0121086210747553
aF0.016879308777819513
aF0.6117057791455971
aF0.0017783019848699455
aF0.29755630257409416
aF0.36380157674473357
aF0.630318462197032
aF0.8166908774740511
aF0.19081231889563277
aF0.7855004597795783
aF0.16565776282388822
aF0.970234782872338
aF0.03967834847478491
aF0.964662808929805
aF0.2845089811067095
aF0.10627944944154788
aF0.319331896867887
aF0.5989190842101436
aF0.684692177701812
aF0.5785949433852495
aF0.2017633188241713
atp477
tp478
a(g137
(S'\x00\t\x02\x00\x00\x00'
p479
tp480
Rp481
g151
(lp482
F0.4136475999090433
aF0.1385851113227219
aF0.8435851753481675
aF0.6130001707232624
aF0.6932095012886598
aF0.5977459462274038
aF0.6843994073445395
aF0.19117300823026695
aF0.6275633514157183
aF0.11776241843272095
aF0.4542320523564297
aF0.599547088646694
aF0.22069523757929688
aF0.03844101887451212
aF0.7446200846084793
aF0.3642936716133637
aF0.6681379340329419
aF0.6483666129999319
aF0.44337236626351595
aF0.17141266438811908
aF0.02111122240455099
aF0.7387667203234475
aF0.94970317061705
atp483
asg298
(dp484
g300
g301
sg302
g303
sg304
g305
sg306
(lp485
(lp486
asg309
g137
(S'\x00\x00\x00\x00\x00\x00'
p487
tp488
Rp489
sg313
g314
sssI4
(dp490
g2
(g3
(g7
S'wo\xccR"A\xb1\xbf'
p491
tp492
Rp493
g3
(g7
S'`\x90A\x8dK\xbc\xba\xbf'
p494
tp495
Rp496
tp497
sg17
(lp498
(g3
(g7
S'\xc3\x1e\xcf\xdb \xad\xbe\xbf'
p499
tp500
Rp501
g3
(g7
S'\xdf\xf0qf\xd7\x1a\x8f\xbf'
p502
tp503
Rp504
tp505
a(g3
(g7
S'\xbai,@S\xc1\xbe\xbf'
p506
tp507
Rp508
g3
(g7
S'\xd9\x94\xe90x\xc1r?'
p509
tp510
Rp511
tp512
a(g3
(g7
S'\xd1\x96R\xaf}\xe1\xb7\xbf'
p513
tp514
Rp515
g3
(g7
S'\xa4}\xb6p=\x9b\xa1?'
p516
tp517
Rp518
tp519
a(g3
(g7
S'K\xd5x~\xd7p\xbb\xbf'
p520
tp521
Rp522
g3
(g7
S'T\xf5\xc7\xba\xf1\xef\xb1?'
p523
tp524
Rp525
tp526
a(g3
(g7
S'\xf0\xcd\x10\xee\xff\x9e\xae?'
p527
tp528
Rp529
g3
(g7
S'\x11\xf4\x81J\xe8\x1f\xb3\xbf'
p530
tp531
Rp532
tp533
a(g3
(g7
S'\xbdv\xe4Z*\r\xaf\xbf'
p534
tp535
Rp536
g3
(g7
S'\x1cxl\xb5\xfc\xc6\xac?'
p537
tp538
Rp539
tp540
a(g3
(g7
S'H\xa1\xf8\x87\x86\xc7s\xbf'
p541
tp542
Rp543
g3
(g7
S'\xe2\xcd\xdc{\x02,\xb4?'
p544
tp545
Rp546
tp547
a(g3
(g7
S'uh\x86\xfe9\xca\x85?'
p548
tp549
Rp550
g3
(g7
S'm\xe2W"\xc3?\xbb?'
p551
tp552
Rp553
tp554
a(g3
(g7
S'|\xa1\xe3F\x04v\xa7?'
p555
tp556
Rp557
g3
(g7
S'\xd0\xc2\xda\xbc"\xb1\xc4?'
p558
tp559
Rp560
tp561
a(g3
(g7
S'=3\xeaR.y\xba?'
p562
tp563
Rp564
g3
(g7
S'\x14B_\xfa\xf5#\xc0?'
p565
tp566
Rp567
tp568
a(g3
(g7
S's\xfa)\x1e&h\xba?'
p569
tp570
Rp571
g3
(g7
S'\x98\xc5\xa3\x15\x07\x84\xc1?'
p572
tp573
Rp574
tp575
a(g3
(g7
S'\xb8Q[8\xb1\xd4\xbc?'
p576
tp577
Rp578
g3
(g7
S'(FVb&\xe1\xc2?'
p579
tp580
Rp581
tp582
a(g3
(g7
S'%y\x97\x062\x8c\xbf?'
p583
tp584
Rp585
g3
(g7
S'&\x1fi\r|\xf9\xc6?'
p586
tp587
Rp588
tp589
a(g3
(g7
S'\x1dn\xc3\x9b\xfd\xed\xc1?'
p590
tp591
Rp592
g3
(g7
S'\xf8_\xb5\xc4-\x88\xc9?'
p593
tp594
Rp595
tp596
asg110
g111
sg135
(lp597
(g137
(S'\x00\x08\x1a\x00\x00\x00'
p598
tp599
Rp600
g141
((lp601
g143
ag144
a(lp602
F0.25459288077271924
aF0.4745360641601569
aF0.7242826861737777
aF0.9236751369458791
aF0.8765109801039928
aF0.9233565049518659
aF0.40244332580428055
aF0.10236655924263383
aF0.007620936374354792
aF0.9142954302552806
aF0.7121096360778183
aF0.9577393630943746
aF0.7820256587956781
aF0.43402213907982223
aF0.12638267797973735
aF0.04198998877614124
aF0.6722736999149768
aF0.4815244864784973
aF0.6483122752585242
aF0.8249961090161922
aF0.4511168221061447
aF0.4352539118162524
aF0.9689127811125798
atp603
tp604
a(g137
(S'\x00\x08\x1b\x00\x00\x00'
p605
tp606
Rp607
g151
(lp608
F0.6878163866284077
aF0.4993848114642033
aF0.5397179543239334
aF0.5828798335360549
aF0.50351152668238
aF0.38766739375380643
aF0.29520595345523026
aF0.0988538439326252
aF0.811805302366951
aF0.38266800568496817
aF0.5901767236774699
aF0.6824920368940964
aF0.7640247643225436
aF0.030546446134936733
aF0.8923374454148647
aF0.5221424223936167
aF0.24471964965468762
aF0.014505021714899868
aF0.677896429547777
aF0.5418289592779175
aF0.7013122302785988
aF0.6913339770935056
aF0.16487884284864496
atp609
a(g137
(S'\x00\x08\x1f\x00\x00\x00'
p610
tp611
Rp612
g141
((lp613
g143
ag144
a(lp614
F0.26432229441284527
aF0.9724033506817261
aF0.34798847762354146
aF0.5864378028534886
aF0.9417644331720167
aF0.6394011850834295
aF0.27615655107725046
aF0.9436145732680091
aF0.9922537721326242
aF0.7628327512400425
aF0.029791105303759613
aF0.7747583719788632
aF0.9329997705011445
aF0.06141435213330926
aF0.6009713430478096
aF0.012692098769660931
aF0.08725561263361259
aF0.666363228788862
aF0.09857391995221787
aF0.9405492537410739
aF0.8391316226664306
aF0.9732296063017298
aF0.20330583732486007
atp615
tp616
a(g137
(S'\x00\x08 \x00\x00\x00'
p617
tp618
Rp619
g151
(lp620
F0.8370934926476554
aF0.36481710245220256
aF0.6901468443348355
aF0.8074179177206489
aF0.5183002862923182
aF0.7973236453382745
aF0.506987184477755
aF0.7316475104576091
aF0.4000632135266813
aF0.5963690657754057
aF0.4992662462318521
aF0.8626317947390945
aF0.7132819496194014
aF0.645027884142245
aF0.43465549753151755
aF0.2076249212731166
aF0.6817166499368953
aF0.5958496478624424
aF0.4688623966101989
aF0.8975911799442127
aF0.13969509295772475
aF0.3615892668320292
aF0.5688476925699856
atp621
a(g137
(S'\x00\x08$\x00\x00\x00'
p622
tp623
Rp624
g141
((lp625
g143
ag144
a(lp626
F0.3414377832457257
aF0.580606868402872
aF0.8196614545722727
aF0.6440101507690864
aF0.8392031488106242
aF0.08295055038292898
aF0.3696245178138057
aF0.03443622616149389
aF0.33267828387161713
aF0.9162335219118416
aF0.29314403865029026
aF0.2546307026668997
aF0.3730719993152556
aF0.735305517097113
aF0.14892644409605083
aF0.6156733571724413
aF0.9763007027758881
aF0.25570983514426815
aF0.06688679164004185
aF0.3639471601465474
aF0.3591460777940285
aF0.8382929483370458
aF0.49374975146665323
atp627
tp628
a(g137
(S'\x00\x08%\x00\x00\x00'
p629
tp630
Rp631
g151
(lp632
F0.5299359714058944
aF0.09651288673798497
aF0.48883270074651053
aF0.6795665033536809
aF0.6515326995340116
aF0.3338139204183783
aF0.9264299973895378
aF0.06056130128127357
aF0.8006962953512471
aF0.015192706437709536
aF0.3619050241596846
aF0.8418842974320805
aF0.8427878618305755
aF0.859370313849334
aF0.039013474122468805
aF0.8206282406053697
aF0.6672236056590587
aF0.9839462055188546
aF0.9172498172294794
aF0.9715639207960907
aF0.5673651923576988
aF0.2764684298940083
aF0.46772248310765596
atp633
a(g137
(S'\x00\x08)\x00\x00\x00'
p634
tp635
Rp636
g141
((lp637
g143
ag144
a(lp638
F0.09619079023781385
aF0.1159157974139049
aF0.2581073334435612
aF0.5882025148524722
aF0.12780538323237756
aF0.46088518712367765
aF0.4808232253935314
aF0.3542312119821175
aF0.4457048860295161
aF0.8183406645373992
aF0.38976057958186316
aF0.1589152934576884
aF0.9103526332443597
aF0.9489109494005227
aF0.39008923179368715
aF0.5407565053171626
aF0.3759083471710991
aF0.4335572865381323
aF0.4954312191783089
aF0.8398551890029996
aF0.6348006802688512
aF0.13220044549392507
aF0.2048758741801191
atp639
tp640
a(g137
(S'\x00\x08*\x00\x00\x00'
p641
tp642
Rp643
g151
(lp644
F0.34329732345148345
aF0.9540845129240231
aF0.8764328742870414
aF0.85663678063548
aF0.5921605063601161
aF0.0747467486808775
aF0.6545280551485362
aF0.7712182559860241
aF0.7871849342772888
aF0.9809218543080779
aF0.02953195711748713
aF0.354834430836797
aF0.7595442370764277
aF0.8154414394716166
aF0.10469524537566843
aF0.6361078477813272
aF0.8077839765342429
aF0.7931931490545656
aF0.6641858235421184
aF0.6714962094556106
aF0.1761628783099184
aF0.7813133364449074
aF0.36681191753899933
atp645
a(g137
(S'\x00\x08.\x00\x00\x00'
p646
tp647
Rp648
g141
((lp649
g143
ag144
a(lp650
F0.08313509275846542
aF0.6151470991924582
aF0.5173141763830973
aF0.6786670260392731
aF0.31475960693731286
aF0.10859100814566458
aF0.8535166594662915
aF0.14995211512075024
aF0.7342228248436086
aF0.6470911117971503
aF0.9405229021574086
aF0.8021679037457268
aF0.17508190390785305
aF0.6041654905531629
aF0.7848270807590301
aF0.1259260174858161
aF0.34057166320972987
aF0.49192403002934515
aF0.3770680221176739
aF0.8383293370972976
aF0.46371312257143005
aF0.29565649014891204
aF0.2803156427744996
atp651
tp652
a(g137
(S'\x00\x08/\x00\x00\x00'
p653
tp654
Rp655
g151
(lp656
F0.06734355118894242
aF0.929684083800167
aF0.5315113300134577
aF0.7912422960171218
aF0.08912963927443762
aF0.9655792664069112
aF0.8643280061625268
aF0.5304742176010094
aF0.5903709881159815
aF0.7871517155448833
aF0.5612513552254984
aF0.32805590430265064
aF0.36705394292355
aF0.44621204802517334
aF0.4171828115394649
aF0.3898612106094911
aF0.6736928349029899
aF0.4116736599669336
aF0.18415390288554834
aF0.3407601923247965
aF0.5399236577196453
aF0.5084880916486118
aF0.08531303110412802
atp657
a(g137
(S'\x00\x083\x00\x00\x00'
p658
tp659
Rp660
g141
((lp661
g143
ag144
a(lp662
F0.9869772857556048
aF0.8847562438350521
aF0.433092807236388
aF0.23476626972009085
aF0.29180831590199197
aF0.4430262996368317
aF0.4878308154741744
aF0.4971818413475968
aF0.7183767552538735
aF0.34505566508048624
aF0.5523483986652329
aF0.4686224184059269
aF0.7300257530564848
aF0.41428662702930685
aF0.07963824703970113
aF0.520553299872848
aF0.03788841073639293
aF0.21696031461536358
aF0.7775730390032654
aF0.8447711091782195
aF0.20532451804497376
aF0.7974031725842583
aF0.1080959776914221
atp663
tp664
a(g137
(S'\x00\x084\x00\x00\x00'
p665
tp666
Rp667
g151
(lp668
F0.8565106961316613
aF0.014460266167517943
aF0.7177378715203292
aF0.4593838149243268
aF0.18981112708638748
aF0.3775320028523905
aF0.9839294748827865
aF0.9011666284919047
aF0.9528190854338131
aF0.40885371821159167
aF0.9329677381528545
aF0.5744679687449389
aF0.3989032493855488
aF0.8978148817177155
aF0.31195363951384614
aF0.8342509355721136
aF0.9726935524281014
aF0.7817974471956002
aF0.3540212386168403
aF0.10526593533511419
aF0.17970643213555793
aF0.9651661111609573
aF0.1546991529974081
atp669
a(g137
(S'\x00\x088\x00\x00\x00'
p670
tp671
Rp672
g141
((lp673
g143
ag144
a(lp674
F0.7728105637167707
aF0.23124842019857805
aF0.12415379202283028
aF0.3020778242630593
aF0.25958013668755353
aF0.7419563152353127
aF0.48221136102154427
aF0.5848849050603918
aF0.8221957282520439
aF0.10181563406571792
aF0.1262612434450301
aF0.8693339002991133
aF0.09630674316920385
aF0.2800915491678061
aF0.18844411858598198
aF0.7130711462842068
aF0.6787152329533157
aF0.29773026133296987
aF0.0827138107098363
aF0.8159456173233568
aF0.8099207241580201
aF0.5769188148716214
aF0.8978529233968356
atp675
tp676
a(g137
(S'\x00\x089\x00\x00\x00'
p677
tp678
Rp679
g151
(lp680
F0.40141027783288175
aF0.6626153932986967
aF0.5902597350683526
aF0.8759583833339104
aF0.7530944503643753
aF0.9053036716986658
aF0.6725945137880204
aF0.4155557072013193
aF0.9770072205175565
aF0.5753977680902457
aF0.5095524674973524
aF0.14979305023381162
aF0.9522542478330676
aF0.2465613171881461
aF0.0508638215572802
aF0.9784843075079172
aF0.7308898196836882
aF0.8172411148985246
aF0.49637166011679335
aF0.0909864596135872
aF0.8036881894444555
aF0.30793205510720434
aF0.29360667127634965
atp681
a(g137
(S'\x00\t\x01\x00\x00\x00'
p682
tp683
Rp684
g141
((lp685
g143
ag144
a(lp686
F0.602620671392164
aF0.9782526002848513
aF0.4789134672143541
aF0.16122569605576298
aF0.9701778231068667
aF0.1461583804861013
aF0.9478227937193864
aF0.10606640495233943
aF0.3244345826734486
aF0.9930480989557122
aF0.6245294277303571
aF0.5700716023017116
aF0.7429811176103416
aF0.3557153710689338
aF0.589356575391242
aF0.8672521332161303
aF0.9006307153321713
aF0.1905960219131303
aF0.14972019092884492
aF0.39501435344996705
aF0.838654230077267
aF0.18924416895895446
aF0.6535931629410014
atp687
tp688
a(g137
(S'\x00\t\x02\x00\x00\x00'
p689
tp690
Rp691
g151
(lp692
F0.18613616648542153
aF0.12984673036404837
aF0.5343398048092121
aF0.5864217363071305
aF0.36331514469522785
aF0.9410657861087257
aF0.4808119874287575
aF0.548297691657293
aF0.02377479100858071
aF0.970013868934232
aF0.9530324468139555
aF0.43617495156439423
aF0.5552692824697499
aF0.5478521845375323
aF0.2820637030896843
aF0.6720532761062844
aF0.9007640431325322
aF0.843810798575711
aF0.5465488978386028
aF0.4967389705395916
aF0.8414063309359321
aF0.42802659451530434
aF0.620674226373231
atp693
a(g137
(S'\x00\t\x06\x00\x00\x00'
p694
tp695
Rp696
g141
((lp697
g143
ag144
a(lp698
F0.517255736590949
aF0.8183220271158358
aF0.3442584567398873
aF0.4881850806779713
aF0.07697636132177954
aF0.8987450507168722
aF0.6459747534580841
aF0.337385250290683
aF0.01008189194539022
aF0.8657409526304789
aF0.20146235930950007
aF0.5580411004611501
aF0.9461528954594915
aF0.2741178092852349
aF0.7399269331590457
aF0.8247682531396237
aF0.7558507033812938
aF0.041248865134178025
aF0.17907721403410548
aF0.9544668886732258
aF0.45631475909586383
aF0.35413096597372984
aF0.3254655928845097
atp699
tp700
a(g137
(S'\x00\t\x07\x00\x00\x00'
p701
tp702
Rp703
g151
(lp704
F0.8034239850058685
aF0.6840694255635447
aF0.18883563063427178
aF0.18473485366386577
aF0.18577137401705257
aF0.7309765612272803
aF0.9947730520331332
aF0.3593063135181629
aF0.1033310407034762
aF0.0913497416586383
aF0.980357342449547
aF0.6560755639170299
aF0.10188115415324739
aF0.1770346196117425
aF0.378331733436276
aF0.3252274631252233
aF0.6579557211828014
aF0.6881029261506698
aF0.061492295839980615
aF0.1959390410130264
aF0.16771078069303313
aF0.49449618049052846
aF0.36202983352369655
atp705
a(g137
(S'\x00\t\x0b\x00\x00\x00'
p706
tp707
Rp708
g141
((lp709
g143
ag144
a(lp710
F0.7903398063117273
aF0.38224893968429063
aF0.304913392229174
aF0.39352598056828525
aF0.7379164465143389
aF0.869590284244732
aF0.21977784387669574
aF0.8953810798308264
aF0.8140646774256027
aF0.9995598259667215
aF0.09456405450614569
aF0.31793250972762643
aF0.42846488906464486
aF0.04303778821385307
aF0.19077919658176412
aF0.9735857177016365
aF0.9979991233766022
aF0.7841788860113362
aF0.42751802617719226
aF0.3917054716234438
aF0.9399928743511209
aF0.12687066504450506
aF0.027034537577382167
atp711
tp712
a(g137
(S'\x00\t\x0c\x00\x00\x00'
p713
tp714
Rp715
g151
(lp716
F0.6443166991146237
aF0.8973033131054513
aF0.504257436836452
aF0.6063633178282637
aF0.17747085710385024
aF0.5940117512824116
aF0.13702866763575738
aF0.322022585984132
aF0.7091009463294333
aF0.09089111452252285
aF0.6595814542258402
aF0.815390576900393
aF0.6208244461189546
aF0.1169004593594426
aF0.04614261089217819
aF0.09490171286503657
aF0.788515847603603
aF0.29097020487436787
aF0.14007637024723918
aF0.14779485111158597
aF0.23477707973033746
aF0.6209259655187087
aF0.36099678640762334
atp717
a(g137
(S'\x00\t\x10\x00\x00\x00'
p718
tp719
Rp720
g141
((lp721
g143
ag144
a(lp722
F0.6733781773696291
aF0.9384704317616017
aF0.9158765908277254
aF0.6759359290311717
aF0.006365727829147905
aF0.2427030712198074
aF0.08204123499688676
aF0.15719266063711268
aF0.8885590431081686
aF0.26410830267195107
aF0.6201248619517584
aF0.6758704224181185
aF0.33332278369270396
aF0.4813447011734572
aF0.975919295893361
aF0.9292612775139273
aF0.31554493941399886
aF0.12726187331308791
aF0.5924902223405802
aF0.302613195257292
aF0.02581953519611002
aF0.4043144904414222
aF0.03563169115990639
atp723
tp724
a(g137
(S'\x00\t\x11\x00\x00\x00'
p725
tp726
Rp727
g151
(lp728
F0.8074898912763094
aF0.6042765630053192
aF0.8840641021289657
aF0.9731593934497028
aF0.6247102217994529
aF0.3645897738117102
aF0.812340672573374
aF0.30182192094920535
aF0.027841762197391984
aF0.888078843048495
aF0.4068418231921407
aF0.47786405336745197
aF0.8805581218686964
aF0.8559314333261764
aF0.5519449013167129
aF0.9793009190615037
aF0.9558182075149714
aF0.28493484446899053
aF0.8075576237260927
aF0.11387724027321133
aF0.42580264812278135
aF0.2837158603857005
aF0.1157983319889847
atp729
a(g137
(S'\x00\t\x15\x00\x00\x00'
p730
tp731
Rp732
g141
((lp733
g143
ag144
a(lp734
F0.6729769260375986
aF0.8651980203129359
aF0.1604761393061256
aF0.9535401143704745
aF0.285018083321794
aF0.3763497243178098
aF0.2353298981894404
aF0.7385226817478869
aF0.5476671120382225
aF0.8517100616527847
aF0.3564966246423419
aF0.1343051871664881
aF0.635729222723677
aF0.6246682681099394
aF0.6471876471315071
aF0.9324162722111559
aF0.5580428444417828
aF0.2383739483200794
aF0.47608923641610745
aF0.8945363900828304
aF0.03414742546620697
aF0.13766889365697876
aF0.68013234915258
atp735
tp736
a(g137
(S'\x00\t\x16\x00\x00\x00'
p737
tp738
Rp739
g151
(lp740
F0.6009788720609796
aF0.9067353351011413
aF0.9575448765627257
aF0.6754186540905797
aF0.10922993091510835
aF0.6387508955886161
aF0.4453742387196601
aF0.7203548879028414
aF0.7328430637995125
aF0.7779777100971619
aF0.22790561640626428
aF0.583219116893118
aF0.7574070814160533
aF0.7397315874086983
aF0.3015640902579936
aF0.5679702213220165
aF0.22135798692855946
aF0.6920326955741494
aF0.39222858791868587
aF0.8418205590117311
aF0.6445726849052342
aF0.2748460539412816
aF0.9676845011159003
atp741
a(g137
(S'\x00\t\x1a\x00\x00\x00'
p742
tp743
Rp744
g141
((lp745
g143
ag144
a(lp746
F0.8232393464759519
aF0.7741694534605092
aF0.9151600279162524
aF0.1000661107002554
aF0.7435675958723683
aF0.905188238565226
aF0.8868577527012583
aF0.7813600184676093
aF0.9345842880792453
aF0.6856805322901444
aF0.9444428116875002
aF0.015647326841514375
aF0.031707543418019735
aF0.6489823492163485
aF0.8817252079945764
aF0.7645071049619985
aF0.5404020867079791
aF0.2178420916275139
aF0.8514885922173003
aF0.7930058160201332
aF0.34092606037968276
aF0.4101556322614789
aF0.2953626960326977
atp747
tp748
a(g137
(S'\x00\t\x1b\x00\x00\x00'
p749
tp750
Rp751
g151
(lp752
F0.618803928655637
aF0.028399420864904212
aF0.6026377147430863
aF0.18169679874983902
aF0.6401959129127323
aF0.04298791672872637
aF0.11293185924252835
aF0.27035559305370105
aF0.7661289953812705
aF0.515361409390159
aF0.19430198322532055
aF0.4351356282555692
aF0.10542446846008935
aF0.4018387682952035
aF0.0625627252017662
aF0.5985034417896717
aF0.90259013877964
aF0.22666579436146905
aF0.3434542093230776
aF0.8580669094027106
aF0.5921756540214199
aF0.06959523787557942
aF0.7609651578191547
atp753
a(g137
(S'\x00\t\x1f\x00\x00\x00'
p754
tp755
Rp756
g141
((lp757
g143
ag144
a(lp758
F0.08143530784783515
aF0.29678404067309105
aF0.3823216233527984
aF0.9379241044394591
aF0.3323135537150498
aF0.7870840805255889
aF0.8098582576137732
aF0.9907037414699303
aF0.2267564525336948
aF0.9928268758347456
aF0.7594877385961485
aF0.6731969345058396
aF0.41174489851847906
aF0.2247123420989131
aF0.19718258332917626
aF0.4889370336048102
aF0.061109068050827386
aF0.9254138783962452
aF0.8990490517294195
aF0.7782239134559839
aF0.23459821889752064
aF0.4132212402945755
aF0.09457224894633642
atp759
tp760
a(g137
(S'\x00\t \x00\x00\x00'
p761
tp762
Rp763
g151
(lp764
F0.6195580801959669
aF0.7087759869949208
aF0.9364818557018522
aF0.04993491076856704
aF0.4760820086902079
aF0.8391042504782212
aF0.1850897883865985
aF0.5102014401710211
aF0.8478836655594039
aF0.8991929091985761
aF0.31420833883332167
aF0.5812751233156018
aF0.5031141060153493
aF0.23664903960381367
aF0.8730745910588359
aF0.6233040316339888
aF0.4123798025311335
aF0.5441943265819571
aF0.47946966115572165
aF0.9743813220379004
aF0.7973088705583151
aF0.24648304880362448
aF0.7818357312975251
atp765
asg298
(dp766
g300
g301
sg302
g303
sg304
g305
sg306
(lp767
(lp768
asg309
g137
(S'\x00\x00\x00\x00\x00\x00'
p769
tp770
Rp771
sg313
g314
sssI5
(dp772
g2
(g3
(g7
S'\xfar\xccR"A\xb1\xbf'
p773
tp774
Rp775
g3
(g7
S'\xe7\x8dA\x8dK\xbc\xba\xbf'
p776
tp777
Rp778
tp779
sg17
(lp780
(g3
(g7
S'\xa0\x9d\xbb\x9a\xa1(\xc0\xbf'
p781
tp782
Rp783
g3
(g7
S'I\xee\x1b\xc1\xa5\xe6\xb2\xbf'
p784
tp785
Rp786
tp787
a(g3
(g7
S'>\x00\xa8\xf5Dw\xa7?'
p788
tp789
Rp790
g3
(g7
S'\x8d~Hc\xcf\x16\xbc\xbf'
p791
tp792
Rp793
tp794
a(g3
(g7
S'\x11\xde\x9e{~.\xa9\xbf'
p795
tp796
Rp797
g3
(g7
S'\xa2+\x02\x1b\x83\xebf\xbf'
p798
tp799
Rp800
tp801
a(g3
(g7
S'\x12q*\xe7_\xde\xb7?'
p802
tp803
Rp804
g3
(g7
S'5Q\xb3\x1f\x07>\xb1\xbf'
p805
tp806
Rp807
tp808
a(g3
(g7
S'\xaclV\xbbX\xae\xc1?'
p809
tp810
Rp811
g3
(g7
S"K\x98\xb4q'\xb0\xa6\xbf"
p812
tp813
Rp814
tp815
a(g3
(g7
S'<J|\x97\xd5$\xc1?'
p816
tp817
Rp818
g3
(g7
S',\xe4\xd4\xfd\x01\xc0\x95\xbf'
p819
tp820
Rp821
tp822
a(g3
(g7
S'rg\x84]Hb\xc5?'
p823
tp824
Rp825
g3
(g7
S'\xfc\xde\x80\x82O\x83p\xbf'
p826
tp827
Rp828
tp829
a(g3
(g7
S'\xe3b\xdcW\x96\xac\x88\xbf'
p830
tp831
Rp832
g3
(g7
S'*?\xa6\xd9\x838\xb8?'
p833
tp834
Rp835
tp836
asg110
g111
sg135
(lp837
(g137
(S'\x00\x08\x1a\x00\x00\x00'
p838
tp839
Rp840
g141
((lp841
g143
ag144
a(lp842
F0.8335333911902325
aF0.35141844743016515
aF0.17611044662673614
aF0.35251186036794746
aF0.09577584001735917
aF0.4311424796936293
aF0.19424094746703613
aF0.6783867653657533
aF0.3954775421206289
aF0.7543451754020803
aF0.2615409868271279
aF0.060168997631648624
aF0.7776259188230197
aF0.3658957778277677
aF0.8313523188937746
aF0.7712518745641798
aF0.11236758687776438
aF0.8082967200892327
aF0.7920735815419494
aF0.16318312005173652
aF0.45629265494905324
aF0.6054249722643772
aF0.9299441704037698
atp843
tp844
a(g137
(S'\x00\x08\x1b\x00\x00\x00'
p845
tp846
Rp847
g151
(lp848
F0.9008679588295379
aF0.5576417711672972
aF0.33048895445057547
aF0.3468322979077415
aF0.26330365253686705
aF0.12711802524668814
aF0.7708630984157439
aF0.25721504201059087
aF0.9097458041921658
aF0.28596882964344295
aF0.48285557806232327
aF0.13384389350440928
aF0.31346037857402165
aF0.4566803482269358
aF0.1745612293351635
aF0.6383595570003754
aF0.05945866359197849
aF0.6159099540310985
aF0.5097253459359065
aF0.5932123163922505
aF0.641191093626138
aF0.625917912479522
aF0.632244775509517
atp849
a(g137
(S'\x00\x08\x1f\x00\x00\x00'
p850
tp851
Rp852
g141
((lp853
g143
ag144
a(lp854
F0.7565113001209811
aF0.799475743412434
aF0.8712159101136768
aF0.9493547048304564
aF0.6547717731376844
aF0.8495587864672726
aF0.7287104713690651
aF0.6055314758295397
aF0.8716546876965889
aF0.26370180055873416
aF0.30093899664479484
aF0.9057300832327077
aF0.757839355614582
aF0.8012832465648535
aF0.737647348912443
aF0.33220033730497844
aF0.9122093416869413
aF0.014753404466676723
aF0.5598052535028766
aF0.1315156593635053
aF0.964858271903977
aF0.5892896311096406
aF0.6832493606991749
atp855
tp856
a(g137
(S'\x00\x08 \x00\x00\x00'
p857
tp858
Rp859
g151
(lp860
F0.07715671688499282
aF0.23832758134583176
aF0.11506355047727923
aF0.9949295698767958
aF0.80791428079075
aF0.04860829362000518
aF0.4546346528331907
aF0.7116138208620342
aF0.4072726436057521
aF0.9161482381563648
aF0.9042008021454863
aF0.8001219032761522
aF0.6084456504528272
aF0.28459883581152334
aF0.34194779861974145
aF0.5487739615752568
aF0.82451210941512
aF0.32580704114513515
aF0.9233234623563764
aF0.585456262830435
aF0.6828272143250242
aF0.504718515536915
aF0.2043683795125889
atp861
a(g137
(S'\x00\x08$\x00\x00\x00'
p862
tp863
Rp864
g141
((lp865
g143
ag144
a(lp866
F0.006246425677226997
aF0.681048685306969
aF0.2763508837792795
aF0.4683295415135633
aF0.13928646706271008
aF0.7911777754435929
aF0.7738673431853336
aF0.839136188629841
aF0.10284764259892776
aF0.13110313144103936
aF0.08007053111933593
aF0.8156112459220967
aF0.9608988400308528
aF0.7067055008378055
aF0.4000883763218013
aF0.22074521379068568
aF0.41573237204055147
aF0.7893940322336224
aF0.45363694544543987
aF0.23369775431608475
aF0.045772519546864676
aF0.6849019009907555
aF0.15594440690423828
atp867
tp868
a(g137
(S'\x00\x08%\x00\x00\x00'
p869
tp870
Rp871
g151
(lp872
F0.5719284775940723
aF0.13878169066984414
aF0.33368222882158827
aF0.0032379396599060417
aF0.40638454399836343
aF0.20703192429342165
aF0.6764082014426156
aF0.4869064798951349
aF0.05308089284930728
aF0.9627133903635116
aF0.4299004667967449
aF0.15462870059785183
aF0.980335568056376
aF0.3099147178841477
aF0.1401506307192809
aF0.9609675609426768
aF0.8425343477029862
aF0.4477862833002889
aF0.8859393331941657
aF0.008049529142249212
aF0.34661401637345346
aF0.9182219060588873
aF0.3271553102121787
atp873
a(g137
(S'\x00\x08)\x00\x00\x00'
p874
tp875
Rp876
g141
((lp877
g143
ag144
a(lp878
F0.5101509947711836
aF0.29233296322190505
aF0.8674080887549778
aF0.9296937122132426
aF0.6074204463648666
aF0.3984898737075804
aF0.5471568678265347
aF0.9280663763615197
aF0.5895268057220262
aF0.42164292430382866
aF0.5146021051207219
aF0.9281349585631544
aF0.8725533905334314
aF0.2622742569910699
aF0.7608654862934542
aF0.8269180751065225
aF0.13428231710544203
aF0.8547776869925903
aF0.46024816175702044
aF0.5085994557131616
aF0.7600414440793704
aF0.608996851137508
aF0.7334499735623524
atp879
tp880
a(g137
(S'\x00\x08*\x00\x00\x00'
p881
tp882
Rp883
g151
(lp884
F0.3318984825455936
aF0.7219496187831873
aF0.08579347944103288
aF0.6107280152856623
aF0.12248164666864036
aF0.7994143784080018
aF0.34628544405113526
aF0.8181226297582438
aF0.6181982372666287
aF0.502175073174404
aF0.8784269657913372
aF0.11479936450824191
aF0.16523426274266406
aF0.5711367173140383
aF0.03701272094105479
aF0.049795626436447415
aF0.041888718485011966
aF0.5375351842814224
aF0.295438192538405
aF0.7615840921027638
aF0.8076472509612808
aF0.6193180761308533
aF0.8127179423972284
atp885
a(g137
(S'\x00\x08.\x00\x00\x00'
p886
tp887
Rp888
g141
((lp889
g143
ag144
a(lp890
F0.6151571672371146
aF0.4069351871378668
aF0.9856036306076259
aF0.08863270870248974
aF0.35393161305883547
aF0.5754665253414073
aF0.382643811598361
aF0.775879043245
aF0.08496222222656724
aF0.6167122700433156
aF0.46855452832580535
aF0.6171502677256125
aF0.6420841252035446
aF0.06303577846981567
aF0.7732151026496237
aF0.5146555630892932
aF0.7743813630257467
aF0.8764241180493685
aF0.437655806725218
aF0.28593820120137237
aF0.6378151631259963
aF0.80028782146902
aF0.960029307537451
atp891
tp892
a(g137
(S'\x00\x08/\x00\x00\x00'
p893
tp894
Rp895
g151
(lp896
F0.7337219331810256
aF0.7600676712071344
aF0.989050259126537
aF0.7219633892680454
aF0.06137842167287122
aF0.9974772131404963
aF0.5384702883321376
aF0.7329969362542389
aF0.6894606896885919
aF0.31740190957097514
aF0.3645215812944258
aF0.6183776334856981
aF0.9885011253085606
aF0.4907562958547813
aF0.8882451371481174
aF0.9160287441847621
aF0.863285333411755
aF0.39763098871120683
aF0.39466917972012494
aF0.8040226476841742
aF0.10086771141814066
aF0.9764335795839914
aF0.8651206276006406
atp897
a(g137
(S'\x00\x083\x00\x00\x00'
p898
tp899
Rp900
g141
((lp901
g143
ag144
a(lp902
F0.19552839600611716
aF0.7969733051457217
aF0.7018485067475694
aF0.6065721685485687
aF0.15162412364321987
aF0.8106700867464205
aF0.4527156533456659
aF0.4893638199341568
aF0.3727267855021007
aF0.3868285767499099
aF0.29020427894948175
aF0.19515415340981723
aF0.7708468128377557
aF0.43789640550446396
aF0.22628605150231274
aF0.8870464398399776
aF0.4167040745017767
aF0.6286199570898783
aF0.5793940682340946
aF0.4487953932445937
aF0.9911477710685882
aF0.4345121526068376
aF0.9952052623772712
atp903
tp904
a(g137
(S'\x00\x084\x00\x00\x00'
p905
tp906
Rp907
g151
(lp908
F0.6040216762725915
aF0.6516634075484241
aF0.06488186207013147
aF0.35347293214359743
aF0.4994306438174675
aF0.827258826798756
aF0.11849152156285603
aF0.5380159256213299
aF0.8210253623668478
aF0.2484809446528451
aF0.3268580277423012
aF0.4801503031464196
aF0.270670811861233
aF0.9158468398073077
aF0.3791993880804818
aF0.8460510440338533
aF0.16084451684953494
aF0.6498848160768834
aF0.13694931427212675
aF0.8350939494790223
aF0.9845986905232414
aF0.007135263501771738
aF0.840853011211867
atp909
a(g137
(S'\x00\x088\x00\x00\x00'
p910
tp911
Rp912
g141
((lp913
g143
ag144
a(lp914
F0.14121775691014282
aF0.9507640154013363
aF0.5278966040588005
aF0.801679680731215
aF0.3270178332252285
aF0.38079640359023814
aF0.8596510720740205
aF0.05721845951854576
aF0.8555181955568844
aF0.8425635431035665
aF0.3578954453099549
aF0.3203090906640901
aF0.6363062775855547
aF0.6228074633212118
aF0.5698183823564265
aF0.03833838021785385
aF0.04364908809199519
aF0.7985739564800571
aF0.02925939746350792
aF0.11262262504648379
aF0.07369980270161725
aF0.684713891844472
aF0.6857476118858735
atp915
tp916
a(g137
(S'\x00\x089\x00\x00\x00'
p917
tp918
Rp919
g151
(lp920
F0.6201794410853573
aF0.8901850074126759
aF0.7282724746999377
aF0.011325304940025926
aF0.18718459718306113
aF0.2630410427086187
aF0.35931365166098284
aF0.4714474034096493
aF0.5197568129174577
aF0.12731392648237483
aF0.33536744233116067
aF0.44158805228158393
aF0.4394328980235025
aF0.9189199098976393
aF0.38060395590787843
aF0.29554002538831226
aF0.27632507982995425
aF0.28366600873274006
aF0.5308847269298645
aF0.7480469687884588
aF0.06801775388741538
aF0.22068713640997561
aF0.05002303673162212
atp921
a(g137
(S'\x00\t\x01\x00\x00\x00'
p922
tp923
Rp924
g141
((lp925
g143
ag144
a(lp926
F0.899233016646269
aF0.30652054740858514
aF0.502870245503246
aF0.7775194973042844
aF0.3102646340050407
aF0.48338777538364686
aF0.35724584524535297
aF0.264487688869543
aF0.6516616166859721
aF0.796132601049535
aF0.11958515576027062
aF0.3728620923379399
aF0.8212870028391505
aF0.31678157620553515
aF0.44348808547891994
aF0.036313048370230305
aF0.5943541463021009
aF0.08711112189404402
aF0.8690196548042031
aF0.1824112528160119
aF0.5242370535221734
aF0.33754928972374576
aF0.30991247084446427
atp927
tp928
a(g137
(S'\x00\t\x02\x00\x00\x00'
p929
tp930
Rp931
g151
(lp932
F0.33106045796044814
aF0.306678408944113
aF0.24742914898319812
aF0.4496831347082241
aF0.24248504867160836
aF0.06522198627512776
aF0.5250845514658998
aF0.2787508277060645
aF0.3913432072558144
aF0.9724441506976728
aF0.7030250186031161
aF0.7822417006975178
aF0.9828093800187203
aF0.8406028141670444
aF0.9567938292728563
aF0.3521215935836771
aF0.5113318647992726
aF0.032808991237310736
aF0.45093673840635395
aF0.2582047804283437
aF0.6713230110775451
aF0.20419426705190835
aF0.12384706785806254
atp933
asg298
(dp934
g300
g301
sg302
g303
sg304
g305
sg306
(lp935
(lp936
asg309
g137
(S'\x00\x00\x00\x00\x00\x00'
p937
tp938
Rp939
sg313
g314
sssI6
(dp940
g2
(g3
(g7
S'\x1dq\xccR"A\xb1\xbf'
p941
tp942
Rp943
g3
(g7
S'7\x8fA\x8dK\xbc\xba\xbf'
p944
tp945
Rp946
tp947
sg17
(lp948
(g3
(g7
S'8\x8d\xe8~\x00\xbc\xae\xbf'
p949
tp950
Rp951
g3
(g7
S'f\x15\xed,<i\xb1\xbf'
p952
tp953
Rp954
tp955
a(g3
(g7
S'\xb2\x07\x1fV\xa6x\x9a\xbf'
p956
tp957
Rp958
g3
(g7
S'n\x84\x8b]\x9d\n\xa6\xbf'
p959
tp960
Rp961
tp962
a(g3
(g7
S'\n\xb3\x8b\xed\x01\xbc\xae\xbf'
p963
tp964
Rp965
g3
(g7
S'\xa9\xb7\xde\x8e;i\xb1\xbf'
p966
tp967
Rp968
tp969
a(g3
(g7
S'\x1f\xe6\x95\x1c\xccx\x82\xbf'
p970
tp971
Rp972
g3
(g7
S'd\xc6\xcb\xcc\xcc\xe1\xa8\xbf'
p973
tp974
Rp975
tp976
a(g3
(g7
S'w\xa9\xfa\xe3~!\x95?'
p977
tp978
Rp979
g3
(g7
S'<\xc1\x92\xf4\xbe\x0f\xa0\xbf'
p980
tp981
Rp982
tp983
a(g3
(g7
S'\xcf\rO\xdd\xc8m\xad?'
p984
tp985
Rp986
g3
(g7
S"\xe3\xdd\x9e\xe5\xe4\x81'?"
p987
tp988
Rp989
tp990
a(g3
(g7
S'\x99)\x96@\x8d\xf1\xb7?'
p991
tp992
Rp993
g3
(g7
S'\xa2\xd5\xe1\xf6^\xb2\x8e?'
p994
tp995
Rp996
tp997
a(g3
(g7
S'\x05T{\xe2m\xe9\xba?'
p998
tp999
Rp1000
g3
(g7
S'X\x93EL\x02\x06\xaa?'
p1001
tp1002
Rp1003
tp1004
a(g3
(g7
S'\x98\xd0rPZ\x1f\xc1?'
p1005
tp1006
Rp1007
g3
(g7
S'\xdb\x87\x92\x99\x89\x8c\xb6?'
p1008
tp1009
Rp1010
tp1011
asg110
g111
sg135
(lp1012
(g137
(S'\x00\x08\x1a\x00\x00\x00'
p1013
tp1014
Rp1015
g141
((lp1016
g143
ag144
a(lp1017
F0.7596403118917538
aF0.7163925787108825
aF0.5764621709099851
aF0.16731011805196527
aF0.13571407785041312
aF0.49631413591300044
aF0.7645554640111667
aF0.2980505716862011
aF0.5870314139754588
aF0.2757259873837895
aF0.60061847258732
aF0.8788095691985273
aF0.8684356318176024
aF0.10180069714578244
aF0.8414804460733496
aF0.0763264826902399
aF0.02003917787310383
aF0.726030415897037
aF0.6224924346249755
aF0.23268607536586194
aF0.21040102823693274
aF0.45763494925252124
aF0.8280873501454536
atp1018
tp1019
a(g137
(S'\x00\x08\x1b\x00\x00\x00'
p1020
tp1021
Rp1022
g151
(lp1023
F0.34039223637324545
aF0.8624554937547539
aF0.021821922076697642
aF0.544506176854731
aF0.022225202291042745
aF0.40171422871568396
aF0.1708097755308028
aF0.9519332319453775
aF0.16930264229782266
aF0.8425893019331968
aF0.6503496777156264
aF0.6482450993347374
aF0.641606382697923
aF0.014554855664488553
aF0.3685685804713785
aF0.08356438460780169
aF0.053158948535419914
aF0.7035458081575177
aF0.06807112360899514
aF0.34210360277646135
aF0.7634078999441875
aF0.6973769262643827
aF0.616384160994137
atp1024
a(g137
(S'\x00\x08\x1f\x00\x00\x00'
p1025
tp1026
Rp1027
g141
((lp1028
g143
ag144
a(lp1029
F0.4138866757480206
aF0.7837234418025365
aF0.8929775835713705
aF0.3341467672359739
aF0.6276114184976214
aF0.4489264122698402
aF0.47173265537322184
aF0.44166336618440494
aF0.7008266232866424
aF0.7005881580814434
aF0.5219169657440537
aF0.8703039021947248
aF0.7540992544677709
aF0.274712511207314
aF0.8341703888015277
aF0.7926015454695158
aF0.5164819390174428
aF0.4448169685200566
aF0.3818816039173507
aF0.21008871502601212
aF0.42176232165790095
aF0.6997368851634189
aF0.26159486022476863
atp1030
tp1031
a(g137
(S'\x00\x08 \x00\x00\x00'
p1032
tp1033
Rp1034
g151
(lp1035
F0.20812021429717897
aF0.9722190721178738
aF0.8541607881340592
aF0.5973786563127512
aF0.7937823694211016
aF0.1138895803735771
aF0.6386916557057879
aF0.4028658263839102
aF0.1860196621035919
aF0.08925301307533073
aF0.6456803565896821
aF0.9702780584624688
aF0.5431430784061948
aF0.5207310039877617
aF0.964630912691102
aF0.4083031394911848
aF0.4503527799826317
aF0.23987683342313737
aF0.9490046917178857
aF0.7761491574612709
aF0.7062615715068613
aF0.989822088798936
aF0.6943584394473782
atp1036
a(g137
(S'\x00\x08$\x00\x00\x00'
p1037
tp1038
Rp1039
g141
((lp1040
g143
ag144
a(lp1041
F0.6336038202622658
aF0.04867000992663395
aF0.7713835337880867
aF0.2273689173557667
aF0.7364611249110081
aF0.027029284805611953
aF0.6054887485820024
aF0.6627664824186911
aF0.6396750332302823
aF0.5568678081117183
aF0.5293527740499263
aF0.9301717932252603
aF0.8159059800397034
aF0.5950449685634593
aF0.4919117499109189
aF0.79812251427969
aF0.5346808524775427
aF0.17326847025579628
aF0.29426865532353075
aF0.8083944657298637
aF0.5189285997492827
aF0.966669549018947
aF0.9856064160284584
atp1042
tp1043
a(g137
(S'\x00\x08%\x00\x00\x00'
p1044
tp1045
Rp1046
g151
(lp1047
F0.5707408731258259
aF0.2876896582528137
aF0.5352720482167206
aF0.9954490749655204
aF0.36978601551713386
aF0.9137141771149146
aF0.8068430661099518
aF0.024515017067574862
aF0.8315772545535154
aF0.30187799033489304
aF0.2647635132334383
aF0.11373538277890372
aF0.318664758476351
aF0.5676011331551153
aF0.13342534329448807
aF0.8979100597657075
aF0.5914258258392231
aF0.8116420844953961
aF0.8830612913399487
aF0.03764064336655881
aF0.19446413975882026
aF0.6155685957091215
aF0.6090550779666702
atp1048
a(g137
(S'\x00\x08)\x00\x00\x00'
p1049
tp1050
Rp1051
g141
((lp1052
g143
ag144
a(lp1053
F0.03756480765398407
aF0.5294278050870658
aF0.18022548303152974
aF0.5297201378964345
aF0.5764596646130279
aF0.428798166073055
aF0.03887846386434246
aF0.19434894116197143
aF0.9924853498866788
aF0.7823066084550622
aF0.0930008120943282
aF0.1958940368753439
aF0.6971049581514122
aF0.13503258056602996
aF0.9022414633170359
aF0.3225723422523279
aF0.570957413702251
aF0.8395936305919475
aF0.15573691308261972
aF0.6543342541333905
aF0.9609123646910593
aF0.33913750904406115
aF0.06641118315463523
atp1054
tp1055
a(g137
(S'\x00\x08*\x00\x00\x00'
p1056
tp1057
Rp1058
g151
(lp1059
F0.9276555531973991
aF0.12061941565026724
aF0.36672727670786476
aF0.1994477887628998
aF0.9511380847892271
aF0.28320285230979936
aF0.6076603361225714
aF0.30918491393781955
aF0.8210975399631905
aF0.2558334844238086
aF0.9376764028682468
aF0.6543071360874347
aF0.09919495326293337
aF0.05897024715023502
aF0.8699138702400389
aF0.5694784505332413
aF0.23472314936968253
aF0.5122867398848209
aF0.03260520607221362
aF0.4836841896191534
aF0.2641932852320015
aF0.43463786578921304
aF0.28520203403329025
atp1060
a(g137
(S'\x00\x08.\x00\x00\x00'
p1061
tp1062
Rp1063
g141
((lp1064
g143
ag144
a(lp1065
F0.8248549277872397
aF0.8197838597021512
aF0.6248906999751769
aF0.8220887302117595
aF0.9224297328103414
aF0.15259491286681082
aF0.4910623082218897
aF0.07176698621047595
aF0.4966460018062264
aF0.7779089221786409
aF0.01973187106972163
aF0.8027404060906576
aF0.8851060111326164
aF0.34514552277024557
aF0.8525543486408852
aF0.4575372535792781
aF0.7965947046957457
aF0.4379625782444706
aF0.49759492265527183
aF0.19819491529604993
aF0.477647890405837
aF0.2730592192333432
aF0.23102906869406736
atp1066
tp1067
a(g137
(S'\x00\x08/\x00\x00\x00'
p1068
tp1069
Rp1070
g151
(lp1071
F0.9644268787695627
aF0.38845250218846694
aF0.5963139082908735
aF0.6642773663771103
aF0.7355703703771804
aF0.013031371609514841
aF0.7716602509637857
aF0.038759443268849614
aF0.995230352411259
aF0.6851501246510241
aF0.15164987616202275
aF0.027111341265808053
aF0.8601959461256329
aF0.22092470250242457
aF0.08013717630080008
aF0.4262509483746927
aF0.18177553723462803
aF0.9327435514929278
aF0.3340461891151014
aF0.4738599775191753
aF0.0777701717577749
aF0.17657451766391186
aF0.721363212471903
atp1072
a(g137
(S'\x00\x083\x00\x00\x00'
p1073
tp1074
Rp1075
g141
((lp1076
g143
ag144
a(lp1077
F0.32065679460281526
aF0.27930108316333746
aF0.4986134273342455
aF0.13514074172374224
aF0.8047323739224297
aF0.7733871404676227
aF0.027882151266904076
aF0.2029148091775852
aF0.8595492947434997
aF0.6062650387745608
aF0.3885153340612494
aF0.3703108488228307
aF0.8840357271575051
aF0.9605502125023949
aF0.17205641251936032
aF0.8665784600108365
aF0.10949733746168766
aF0.8429851006916497
aF0.15922557110276403
aF0.7086701659628768
aF0.6372964394640682
aF0.2363978408743158
aF0.2756656499252823
atp1078
tp1079
a(g137
(S'\x00\x084\x00\x00\x00'
p1080
tp1081
Rp1082
g151
(lp1083
F0.4518406848783767
aF0.9863845902684196
aF0.07835903897370622
aF0.29155988532156707
aF0.8044390544010374
aF0.8901127782752991
aF0.679216748394485
aF0.9532067666977605
aF0.8432647819202981
aF0.08341890400719143
aF0.13372077589587983
aF0.2243517406177733
aF0.715645540975773
aF0.4544160006458797
aF0.5459122907118562
aF0.18659114247414954
aF0.45692797607439306
aF0.3987496109907671
aF0.11856768743539059
aF0.2146832991377826
aF0.06033762619259797
aF0.6850825080350195
aF0.2545306886326273
atp1084
a(g137
(S'\x00\x088\x00\x00\x00'
p1085
tp1086
Rp1087
g141
((lp1088
g143
ag144
a(lp1089
F0.4362387856287627
aF0.6106960608424506
aF0.48736786965193024
aF0.43896717655936157
aF0.6164955011279841
aF0.240095047344571
aF0.2204534462619987
aF0.47070446930520304
aF0.673553031908526
aF0.5485629054949475
aF0.19409434601293207
aF0.8381348613071765
aF0.7731365170049819
aF0.916921912290592
aF0.16985067392397035
aF0.9752895118211239
aF0.861420009413674
aF0.3410519567040641
aF0.11225649717139297
aF0.9344126676910318
aF0.00046446711384318107
aF0.2546011015391816
aF0.5068322953780536
atp1090
tp1091
a(g137
(S'\x00\x089\x00\x00\x00'
p1092
tp1093
Rp1094
g151
(lp1095
F0.463757701072833
aF0.6817956117163868
aF0.40883483971586676
aF0.45805972439148834
aF0.052053481206020824
aF0.6334191850957285
aF0.7809752410131368
aF0.689749338689127
aF0.448026076454491
aF0.29254572433651915
aF0.20078761125458677
aF0.5210433048397545
aF0.4017233760600917
aF0.4931467212596098
aF0.6217166429339044
aF0.46979599863420207
aF0.9759133114356088
aF0.945645883633622
aF0.517597591803032
aF0.377282735882166
aF0.8918684640431797
aF0.13087763659568186
aF0.8873041758957756
atp1096
a(g137
(S'\x00\t\x01\x00\x00\x00'
p1097
tp1098
Rp1099
g141
((lp1100
g143
ag144
a(lp1101
F0.329814923314258
aF0.2897406069960168
aF0.4759538014433775
aF0.13393104449833915
aF0.019672628086906507
aF0.031850768303497645
aF0.5358955781320527
aF0.0076414456567490685
aF0.9799825232812812
aF0.31151905704537863
aF0.9809503656066021
aF0.21547730485507166
aF0.21572074434288613
aF0.611592757781585
aF0.7504530280044757
aF0.27964944364845545
aF0.9671098959264288
aF0.3945624986738877
aF0.2000316062712445
aF0.7558871035986215
aF0.8203650862633362
aF0.42444328965948364
aF0.8859801422710057
atp1102
tp1103
a(g137
(S'\x00\t\x02\x00\x00\x00'
p1104
tp1105
Rp1106
g151
(lp1107
F0.8602520388231472
aF0.3005978305022202
aF0.5700539306156287
aF0.1389093176716023
aF0.20385191601716213
aF0.7421024102516227
aF0.6012935008023071
aF0.8613135333429887
aF0.9975255707928795
aF0.2577011511095525
aF0.06470083627957779
aF0.41051698347063137
aF0.1609457723572877
aF0.10647248845574453
aF0.5020272423785357
aF0.5066447355948323
aF0.7836284759786237
aF0.7762948434227651
aF0.02822452045373447
aF0.30071466941743263
aF0.038735151406755874
aF0.5897090284267656
aF0.7339059781414586
atp1108
a(g137
(S'\x00\t\x06\x00\x00\x00'
p1109
tp1110
Rp1111
g141
((lp1112
g143
ag144
a(lp1113
F0.1336313895401412
aF0.163197746907369
aF0.14774315400573546
aF0.15982134934790315
aF0.4996419594268733
aF0.319276641888361
aF0.8194294190721263
aF0.1834682863669127
aF0.6187036063838717
aF0.8519724985268001
aF0.7567388356695186
aF0.5546568313231981
aF0.7749106921711922
aF0.5717650898597945
aF0.6965339730068507
aF0.24492004416334734
aF0.9153348663440691
aF0.5970910878495286
aF0.3580884616423893
aF0.4710143444316075
aF0.09983144002467381
aF0.1413430519118699
aF0.21072341553031615
atp1114
tp1115
a(g137
(S'\x00\t\x07\x00\x00\x00'
p1116
tp1117
Rp1118
g151
(lp1119
F0.7347257770516251
aF0.438450720417938
aF0.5033889631778757
aF0.5525686459816863
aF0.19618281049395114
aF0.5496757324403856
aF0.9500762365041349
aF0.5891007105491972
aF0.010486835101991443
aF0.08335058914098703
aF0.7657179014299607
aF0.13912918427075793
aF0.2825952393655874
aF0.6383836727570495
aF0.8751745297095225
aF0.22785079087408822
aF0.6441243600266142
aF0.25105156599869183
aF0.0919924932893097
aF0.48798882177832203
aF0.7882903877876961
aF0.49226909236409144
aF0.7871388996681199
atp1120
asg298
(dp1121
g300
g301
sg302
g303
sg304
g305
sg306
(lp1122
(lp1123
asg309
g137
(S'\x00\x00\x00\x00\x00\x00'
p1124
tp1125
Rp1126
sg313
g314
sssI7
(dp1127
g2
(g3
(g7
S'\xb7M\xccR"A\xb1\xbf'
p1128
tp1129
Rp1130
g3
(g7
S'\t\xa8A\x8dK\xbc\xba\xbf'
p1131
tp1132
Rp1133
tp1134
sg17
(lp1135
(g3
(g7
S'\x16\x8d\xe7F\xb2t\xa9\xbf'
p1136
tp1137
Rp1138
g3
(g7
S'\x1de\x8d\xcd\xda\xbf\xb9\xbf'
p1139
tp1140
Rp1141
tp1142
a(g3
(g7
S'h)\xe9fO\xa3\x88\xbf'
p1143
tp1144
Rp1145
g3
(g7
S'\xd6\xcc\x04p\xbc\x8c\xb9\xbf'
p1146
tp1147
Rp1148
tp1149
a(g3
(g7
S'\x88P\x8c\xdd\x14\xc3\x8f?'
p1150
tp1151
Rp1152
g3
(g7
S'\x88\xf67\xcaN\xde\xbb\xbf'
p1153
tp1154
Rp1155
tp1156
a(g3
(g7
S'v\n\x83f\xc7\xa2\xa2?'
p1157
tp1158
Rp1159
g3
(g7
S'\xdd\xb1\x8b\xe4\x8a?\xbd\xbf'
p1160
tp1161
Rp1162
tp1163
asg110
g111
sg135
(lp1164
(g137
(S'\x00\x08\x1a\x00\x00\x00'
p1165
tp1166
Rp1167
g141
((lp1168
g143
ag144
a(lp1169
F0.8661563270236952
aF0.5758152228505863
aF0.8343851012990672
aF0.3154659670317944
aF0.8971029106408511
aF0.8461785813976407
aF0.7353289661806865
aF0.40673043408678955
aF0.7872741387151628
aF0.7447989492329488
aF0.1987752737479348
aF0.25910904651755196
aF0.41192232326836786
aF0.1761092698738982
aF0.8441442798036307
aF0.04549131052365629
aF0.9443270277173118
aF0.19240097208266127
aF0.9325835612810207
aF0.5878963348332638
aF0.8851636103182376
aF0.5685635550520933
aF0.35228382530466495
atp1170
tp1171
a(g137
(S'\x00\x08\x1b\x00\x00\x00'
p1172
tp1173
Rp1174
g151
(lp1175
F0.5598024001991271
aF0.29598767139257665
aF0.2570318651582585
aF0.052060732706910806
aF0.12371263646475728
aF0.2999166816788038
aF0.7539927263436483
aF0.4475496428668502
aF0.6335427898158099
aF0.12468165971449252
aF0.42934458404558373
aF0.280603846067103
aF0.13387198934631295
aF0.7720552615160872
aF0.7344891213449065
aF0.4244197008979801
aF0.081134970807627
aF0.9240512543540988
aF0.18920619389003224
aF0.28204473847554445
aF0.3934869014099305
aF0.8683024179797864
aF0.7869881094743688
atp1176
a(g137
(S'\x00\x08\x1f\x00\x00\x00'
p1177
tp1178
Rp1179
g141
((lp1180
g143
ag144
a(lp1181
F0.6863847536885131
aF0.35772443209747495
aF0.1702104217720094
aF0.11379644018417678
aF0.7218869189563997
aF0.044607565479434896
aF0.6027722433899912
aF0.593336358575903
aF0.7330239623469783
aF0.18476061858814175
aF0.2901926081452738
aF0.08571056476358752
aF0.47376282382936685
aF0.33962773523106227
aF0.9775482708822991
aF0.6126466853692278
aF0.25612923867404236
aF0.6961818775144065
aF0.4896464718735134
aF0.8246176417153831
aF0.2499473285682534
aF0.9772425086093165
aF0.40974099870247216
atp1182
tp1183
a(g137
(S'\x00\x08 \x00\x00\x00'
p1184
tp1185
Rp1186
g151
(lp1187
F0.0236378404117773
aF0.7093560478448309
aF0.8336118726004645
aF0.18356391093854862
aF0.9073565875216131
aF0.2299723164091919
aF0.17034646366732875
aF0.6962886372417957
aF0.8278152204884182
aF0.028259006353395733
aF0.897824590117395
aF0.6270309131844652
aF0.30701864307775917
aF0.4376250476587259
aF0.6357541640912724
aF0.7756790408209148
aF0.025883076361004287
aF0.24229297951122186
aF0.09774975648481321
aF0.16561299214901748
aF0.7465250089116572
aF0.7328326096353007
aF0.108426136240105
atp1188
a(g137
(S'\x00\x08$\x00\x00\x00'
p1189
tp1190
Rp1191
g141
((lp1192
g143
ag144
a(lp1193
F0.7384085147819137
aF0.9150506498714355
aF0.12378656611269945
aF0.4840464889866689
aF0.8110950986380169
aF0.7633277550363976
aF0.8314687488220145
aF0.24492814641020644
aF0.3872464070582601
aF0.43250621114540133
aF0.21366902528818743
aF0.6542381426784699
aF0.15464541908813412
aF0.8333160701653404
aF0.0738942827909368
aF0.12268950173342053
aF0.27576252905767507
aF0.9754683062642353
aF0.968752495241081
aF0.2240584326440005
aF0.04522226736754609
aF0.25327311105789807
aF0.36180940537883555
atp1194
tp1195
a(g137
(S'\x00\x08%\x00\x00\x00'
p1196
tp1197
Rp1198
g151
(lp1199
F0.9437677396315307
aF0.02788977236253487
aF0.8184190906211247
aF0.5591685834486676
aF0.14615510323388814
aF0.004310371934139745
aF0.8346911336685874
aF0.49982324767441166
aF0.45259308351941063
aF0.601441941187889
aF0.033984924879826184
aF0.717396513879872
aF0.07781383603147374
aF0.445166283304542
aF0.6884434183271414
aF0.32962014683818686
aF0.08239902081287864
aF0.2403220126350939
aF0.5388958187292346
aF0.43763490151952045
aF0.1307087110748545
aF0.2203369603469093
aF0.6315038329250126
atp1200
a(g137
(S'\x00\x08)\x00\x00\x00'
p1201
tp1202
Rp1203
g141
((lp1204
g143
ag144
a(lp1205
F0.9959722503466669
aF0.7145070875599754
aF0.8657175183369421
aF0.9944118728513975
aF0.028941581024703678
aF0.981413920229105
aF0.6543579426798475
aF0.27960499443305176
aF0.45944589031168226
aF0.8485247732998098
aF0.9038284992442679
aF0.2526993860521096
aF0.9606501843551037
aF0.7300468117129978
aF0.18157615953786377
aF0.6719974928460415
aF0.3953147151473768
aF0.1918940272775822
aF0.9353734142265054
aF0.5054087383822373
aF0.156561626497703
aF0.743035857461662
aF0.257971347071446
atp1206
tp1207
a(g137
(S'\x00\x08*\x00\x00\x00'
p1208
tp1209
Rp1210
g151
(lp1211
F0.8119878231525658
aF0.33630055461131125
aF0.47691567813391667
aF0.29771350503873806
aF0.290696730913203
aF0.17487487043185057
aF0.5240576518779838
aF0.01644654003641899
aF0.9210420549665274
aF0.4740401950700508
aF0.40849452205794656
aF0.3418088574639351
aF0.6032699519963447
aF0.20307721278149027
aF0.4470933822090527
aF0.6407411357357136
aF0.2116831453263457
aF0.05468468691137762
aF0.8284362152590248
aF0.14969415544960785
aF0.3296633170146065
aF0.6027483299003364
aF0.7613512338638914
atp1212
asg298
(dp1213
g300
g301
sg302
g303
sg304
g305
sg306
(lp1214
(lp1215
asg309
g137
(S'\x00\x00\x00\x00\x00\x00'
p1216
tp1217
Rp1218
sg313
g314
sssI8
(dp1219
g2
(g3
(g7
S'\xacp\xccR"A\xb1\xbf'
p1220
tp1221
Rp1222
g3
(g7
S'\x83\x8fA\x8dK\xbc\xba\xbf'
p1223
tp1224
Rp1225
tp1226
sg17
(lp1227
(g3
(g7
S'\xfc\xcbc\xe5M\xdd\xb8\xbf'
p1228
tp1229
Rp1230
g3
(g7
S'\xb5\x91zZ\x97\xa2\xb1\xbf'
p1231
tp1232
Rp1233
tp1234
a(g3
(g7
S'\xa6z\x1b\x10\x898\xbb\xbf'
p1235
tp1236
Rp1237
g3
(g7
S'\xcf4\xab\xdf>\x8d\xad\xbf'
p1238
tp1239
Rp1240
tp1241
a(g3
(g7
S'\xf3h \x0b\x94\x01\xbb\xbf'
p1242
tp1243
Rp1244
g3
(g7
S'\x04o$\x1d\x90\x1e\x9a\xbf'
p1245
tp1246
Rp1247
tp1248
a(g3
(g7
S'\xda`G\xa1\xff\xe5\xbb\xbf'
p1249
tp1250
Rp1251
g3
(g7
S'\xd5+u\x81D\xcd\x8b?'
p1252
tp1253
Rp1254
tp1255
a(g3
(g7
S'\x1d,\xc6\x8b\x85\xb8\xb2\xbf'
p1256
tp1257
Rp1258
g3
(g7
S'J\xfc\xeb\xacry\xb0?'
p1259
tp1260
Rp1261
tp1262
a(g3
(g7
S'YV-\x99\xc7\xda\x97\xbf'
p1263
tp1264
Rp1265
g3
(g7
S'\x90\x9c\xfd\xb5\x1d\xf9\xc0?'
p1266
tp1267
Rp1268
tp1269
a(g3
(g7
S'\x04\x80\xc0\x92\xc2\xaez\xbf'
p1270
tp1271
Rp1272
g3
(g7
S'\xe5C\xaa\x14\xb8m\xc7?'
p1273
tp1274
Rp1275
tp1276
a(g3
(g7
S'm\x8e:,\xbe\x8a~?'
p1277
tp1278
Rp1279
g3
(g7
S'\x18\xd8u\xa2\x04\xc1\xcd?'
p1280
tp1281
Rp1282
tp1283
a(g3
(g7
S'\xec\xa2\x1c\x19k\\\xc7?'
p1284
tp1285
Rp1286
g3
(g7
S'\x0b\x05\xcc,\xa6\x19\xd1?'
p1287
tp1288
Rp1289
tp1290
a(g3
(g7
S' \x0c\xb8>n\xf3\x84?'
p1291
tp1292
Rp1293
g3
(g7
S'\xa1P\x0b@\x1e\xbf\xcd?'
p1294
tp1295
Rp1296
tp1297
a(g3
(g7
S'L\x94\x8f\x9aW\xdf\xaf\xbf'
p1298
tp1299
Rp1300
g3
(g7
S'nT\xfa\xf5`\xf5\xd3?'
p1301
tp1302
Rp1303
tp1304
a(g3
(g7
S'\xe8)\xbdH\x03\xde\x7f?'
p1305
tp1306
Rp1307
g3
(g7
S'003\x88\xda\xc0\xcd?'
p1308
tp1309
Rp1310
tp1311
asg110
g111
sg135
(lp1312
(g137
(S'\x00\x08\x1a\x00\x00\x00'
p1313
tp1314
Rp1315
g141
((lp1316
g143
ag144
a(lp1317
F0.46630551245324814
aF0.21279022925700242
aF0.2749371571454138
aF0.07111468460076986
aF0.7222498047496068
aF0.6953200542818083
aF0.817830595027647
aF0.08753382473452409
aF0.02002890589738482
aF0.6481307629209497
aF0.6589659386732416
aF0.5381422159912093
aF0.9968711342040604
aF0.9562608506996955
aF0.9550308627228643
aF0.0734576808706009
aF0.6011377831319686
aF0.23339435477490356
aF0.5900165058704003
aF0.933611022301763
aF0.20812791625041804
aF0.5030237095489011
aF0.5837428773169209
atp1318
tp1319
a(g137
(S'\x00\x08\x1b\x00\x00\x00'
p1320
tp1321
Rp1322
g151
(lp1323
F0.2890394961869629
aF0.25439359058748
aF0.87885319001195
aF0.42733168917319264
aF0.7997934669289136
aF0.3820633308482645
aF0.6981302744766618
aF0.19058769142671328
aF0.40685640709295323
aF0.4359982081495929
aF0.9260402025176419
aF0.6246768810284188
aF0.5891962814307551
aF0.7679854873106141
aF0.711246802630516
aF0.8395795248792269
aF0.0004602734986305368
aF0.9228451409036169
aF0.06083565357473364
aF0.1296195354485723
aF0.3083561144325693
aF0.39533757776126044
aF0.49976070058589217
atp1324
a(g137
(S'\x00\x08\x1f\x00\x00\x00'
p1325
tp1326
Rp1327
g141
((lp1328
g143
ag144
a(lp1329
F0.9512114554181065
aF0.7417799444414644
aF0.5909299255694859
aF0.8070157983413222
aF0.03649715897809014
aF0.42598917136128744
aF0.2807795099689053
aF0.15728576521564563
aF0.7811162343141055
aF0.3326743701342093
aF0.8094769528936542
aF0.16873891370925387
aF0.9730891502901455
aF0.9175641363027063
aF0.3288313932281409
aF0.32720820853006627
aF0.5769843580773684
aF0.908882010334777
aF0.2998891456286764
aF0.03509323916510254
aF0.889913757513694
aF0.7460841048526052
aF0.7385766505339366
atp1330
tp1331
a(g137
(S'\x00\x08 \x00\x00\x00'
p1332
tp1333
Rp1334
g151
(lp1335
F0.9664927536543576
aF0.8939299270687863
aF0.5734293460141587
aF0.2209764728643756
aF0.6633255781084318
aF0.9188754570224338
aF0.8758934592899774
aF0.01952332307954263
aF0.5866273198675892
aF0.5288039385601649
aF0.7880472885562947
aF0.48089328694336575
aF0.5211640722725596
aF0.6427388195619287
aF0.6330575831524857
aF0.13857643138480458
aF0.1912503992463639
aF0.735920114718089
aF0.8811498961310509
aF0.31957813678732805
aF0.0522881620979786
aF0.6332314790489063
aF0.26770349052837417
atp1336
a(g137
(S'\x00\x08$\x00\x00\x00'
p1337
tp1338
Rp1339
g141
((lp1340
g143
ag144
a(lp1341
F0.8440862019364375
aF0.7999542938439268
aF0.4636012465284064
aF0.6750394336478496
aF0.5772722658945107
aF0.633289410785421
aF0.6999654081270866
aF0.15654389453520356
aF0.42433324966554686
aF0.7073362316476903
aF0.30129710272662846
aF0.5356610313939821
aF0.46557134257095223
aF0.7565757140126108
aF0.3564883280483787
aF0.4603705613497082
aF0.32021940962496376
aF0.47919460165008176
aF0.5728247481053366
aF0.22067149540260722
aF0.6948105151707633
aF0.40332925538983344
aF0.7903857451120195
atp1342
tp1343
a(g137
(S'\x00\x08%\x00\x00\x00'
p1344
tp1345
Rp1346
g151
(lp1347
F0.8220442841773511
aF0.3435591723939464
aF0.27737070889855886
aF0.6000256669806183
aF0.17363608847943957
aF0.48849614803985963
aF0.1327808023893966
aF0.6773193877597744
aF0.7963287541043234
aF0.07062294411340864
aF0.2866207311179837
aF0.9916565974182511
aF0.7291509190635964
aF0.5955465540579168
aF0.4655318764216295
aF0.15008436370901224
aF0.5841135227986364
aF0.8688484457088113
aF0.440048304103667
aF0.9314798602609402
aF0.1983062135145487
aF0.9093485702732665
aF0.806273456148381
atp1348
a(g137
(S'\x00\x08)\x00\x00\x00'
p1349
tp1350
Rp1351
g141
((lp1352
g143
ag144
a(lp1353
F0.653602915019089
aF0.3225319452875315
aF0.5311229467467049
aF0.20040580473812408
aF0.6186730578589156
aF0.744223683509657
aF0.9649197867209298
aF0.07019023593956053
aF0.7585563202795874
aF0.12709886206415677
aF0.2587321830079441
aF0.45470316736076655
aF0.8467305096753525
aF0.12040429183200096
aF0.25948130006469794
aF0.18314476916529088
aF0.06012047190782921
aF0.07514963302222188
aF0.8483184178041127
aF0.4534972464520004
aF0.5716414462964655
aF0.8926909776605022
aF0.6742347067326073
atp1354
tp1355
a(g137
(S'\x00\x08*\x00\x00\x00'
p1356
tp1357
Rp1358
g151
(lp1359
F0.23680017799445674
aF0.2925784202990579
aF0.2689197915039794
aF0.5136985248337933
aF0.05759973531902596
aF0.6935519832186681
aF0.7780657709700567
aF0.5091548445440932
aF0.30783634010595184
aF0.8022091922226963
aF0.9583817392583733
aF0.9996539050540267
aF0.7369923407953425
aF0.39139494173167866
aF0.6729277553035982
aF0.40361890608484097
aF0.15112047826343666
aF0.2226506191433738
aF0.8436520255354962
aF0.676270975172036
aF0.6728442553776888
aF0.38503838423394376
aF0.8311843029061421
atp1360
a(g137
(S'\x00\x08.\x00\x00\x00'
p1361
tp1362
Rp1363
g141
((lp1364
g143
ag144
a(lp1365
F0.13310153607289643
aF0.1034881748334382
aF0.541904851520228
aF0.6954301374725987
aF0.9928377922825369
aF0.8300138089028758
aF0.833770243260772
aF0.9305660101602656
aF0.5773754988452471
aF0.6280101782502108
aF0.31009230166551516
aF0.9885538468769068
aF0.4412241232340185
aF0.3540368319356251
aF0.6641854017323549
aF0.32184873845919726
aF0.4690396043887083
aF0.07094424778190389
aF0.009568357844755404
aF0.7179455373634029
aF0.5142613347205897
aF0.5507944485174663
aF0.5417350153105676
atp1366
tp1367
a(g137
(S'\x00\x08/\x00\x00\x00'
p1368
tp1369
Rp1370
g151
(lp1371
F0.499875021022939
aF0.012240050362917088
aF0.43626413201798153
aF0.4857899497866963
aF0.7866089116451306
aF0.5769404600524171
aF0.25685738038716777
aF0.0982295896873967
aF0.9951673104194627
aF0.5745930834922974
aF0.6634279717174709
aF0.48673240663474593
aF0.6639987878653854
aF0.7281398899371787
aF0.1638281738544134
aF0.8709222678834901
aF0.040968240257441946
aF0.13234235634807434
aF0.37263339433958986
aF0.9189528740789655
aF0.4067861698013575
aF0.1540291216542926
aF0.976652027482429
atp1372
a(g137
(S'\x00\x083\x00\x00\x00'
p1373
tp1374
Rp1375
g141
((lp1376
g143
ag144
a(lp1377
F0.07389820252780921
aF0.5069158022550716
aF0.7758562169124039
aF0.6134259129989662
aF0.686977786403309
aF0.02749788684410559
aF0.72571281991841
aF0.8219067919740902
aF0.631911849206456
aF0.6800560643867782
aF0.42626263968620337
aF0.8217802021947685
aF0.8482405233041831
aF0.8057786525590627
aF0.1371886973295947
aF0.4547517144312476
aF0.1209439180316364
aF0.9473802106295263
aF0.1437054775884894
aF0.6039064044825536
aF0.4384482534198272
aF0.16777747150857225
aF0.03987802574499244
atp1378
tp1379
a(g137
(S'\x00\x084\x00\x00\x00'
p1380
tp1381
Rp1382
g151
(lp1383
F0.14456653309867895
aF0.9387913728755757
aF0.3109238320521984
aF0.5121633722048967
aF0.301435181173798
aF0.010816040677684269
aF0.9539205229868268
aF0.9661889519657454
aF0.3075877707410729
aF0.4510429361379702
aF0.5485137329264762
aF0.9438138651575108
aF0.9594128731285421
aF0.46747027343133496
aF0.8811875553109568
aF0.6517686633826496
aF0.1098950055470822
aF0.723681677315513
aF0.7588104560964758
aF0.07173311105355185
aF0.25156898615745005
aF0.6145812318308528
aF0.9897722502494546
atp1384
a(g137
(S'\x00\x088\x00\x00\x00'
p1385
tp1386
Rp1387
g141
((lp1388
g143
ag144
a(lp1389
F0.978962091711587
aF0.800095386281246
aF0.06900057665260806
aF0.7712452884719565
aF0.1501024665085836
aF0.9858183144708781
aF0.0033332868915172398
aF0.09673401999944231
aF0.8956081485991395
aF0.6372457190608096
aF0.6969383909933224
aF0.1035171078253847
aF0.8104034835279251
aF0.2513688179835658
aF0.6605196879048332
aF0.37735873850070967
aF0.7748247809737889
aF0.18236112471578703
aF0.47817758743989913
aF0.01922989768197647
aF0.5455435769006132
aF0.47887657747124035
aF0.27789879192076683
atp1390
tp1391
a(g137
(S'\x00\x089\x00\x00\x00'
p1392
tp1393
Rp1394
g151
(lp1395
F0.5468082795915338
aF0.4876602489142864
aF0.9710449254393366
aF0.6201616216407257
aF0.07945984420592644
aF0.34165775020382494
aF0.7683656776831208
aF0.7251036301270332
aF0.633328419525566
aF0.029450300630531
aF0.10952247392610148
aF0.0859103732056461
aF0.45642748691815427
aF0.5924438629873996
aF0.13068476674202611
aF0.8597829478785816
aF0.9876036620059165
aF0.12178988622575482
aF0.8978542795074427
aF0.013571998831130805
aF0.5430250005927028
aF0.5169352955346904
aF0.6953191422455577
atp1396
a(g137
(S'\x00\t\x01\x00\x00\x00'
p1397
tp1398
Rp1399
g141
((lp1400
g143
ag144
a(lp1401
F0.7717295140155255
aF0.755236273681054
aF0.7687088461490416
aF0.3890727579080262
aF0.507971342550668
aF0.6806416217439005
aF0.028110196870519633
aF0.5532451618311328
aF0.25143313271660095
aF0.7510761036662622
aF0.5900289038863885
aF0.008873581940913589
aF0.5628614044569504
aF0.3249037687626716
aF0.17787949739326514
aF0.8948447472922587
aF0.8716428596871377
aF0.6323493664270046
aF0.6792549941376428
aF0.05240896454106447
aF0.3182116995097545
aF0.6992766947461344
aF0.5710822618405412
atp1402
tp1403
a(g137
(S'\x00\t\x02\x00\x00\x00'
p1404
tp1405
Rp1406
g151
(lp1407
F0.27549147165660015
aF0.7360591092230624
aF0.1326683812551388
aF0.17591758693966375
aF0.08920515071296686
aF0.11213118431504654
aF0.03851220489159157
aF0.7520737243289186
aF0.20140075386793843
aF0.19955625330036386
aF0.7379887146687397
aF0.01306938081257425
aF0.8369423376950126
aF0.4133146096066034
aF0.8442320123275362
aF0.3593448269373596
aF0.916007060164892
aF0.9412827494992067
aF0.44042358860753716
aF0.28783790763320793
aF0.12766384600131664
aF0.3087563486122663
aF0.050510230318845384
atp1408
a(g137
(S'\x00\t\x06\x00\x00\x00'
p1409
tp1410
Rp1411
g141
((lp1412
g143
ag144
a(lp1413
F0.777538557121057
aF0.5151490315279312
aF0.07693423100300889
aF0.5666121479020944
aF0.46333768084802274
aF0.9967479440472355
aF0.2706112862726754
aF0.368797295293503
aF0.46191313685755164
aF0.34326519837004077
aF0.5925986685959831
aF0.4341073053387329
aF0.227887837353276
aF0.10126075466459938
aF0.764515534249259
aF0.11484505163876968
aF0.3299126834063375
aF0.9094076872150881
aF0.884646165804976
aF0.2486669621048374
aF0.4330459628247514
aF0.6131877745783636
aF0.1680236471726001
atp1414
tp1415
a(g137
(S'\x00\t\x07\x00\x00\x00'
p1416
tp1417
Rp1418
g151
(lp1419
F0.2512176985344595
aF0.7926815967496486
aF0.14066792971494246
aF0.9869920807872155
aF0.9525697263115521
aF0.32552415499993403
aF0.7150654003421609
aF0.43734026846554974
aF0.39658074200054083
aF0.9534290514399066
aF0.5244972007442518
aF0.7388852133984553
aF0.1897602469736649
aF0.7099987427934489
aF0.03570281754257221
aF0.6693285539074868
aF0.5543921706037758
aF0.42157854541557893
aF0.8185400161953293
aF0.010909097812777158
aF0.4634419493587292
aF0.574121886933511
aF0.6380076333531781
atp1420
a(g137
(S'\x00\t\x0b\x00\x00\x00'
p1421
tp1422
Rp1423
g141
((lp1424
g143
ag144
a(lp1425
F0.6666614334751026
aF0.7706785384032376
aF0.26038044232197666
aF0.8416120868933459
aF0.27279668704547244
aF0.9746938070884329
aF0.17547974548444378
aF0.2504736457902813
aF0.6253967947680262
aF0.5050172236839592
aF0.9146454940562496
aF0.5606728447774858
aF0.9371711702540257
aF0.9570408866792831
aF0.17297757346619147
aF0.4349053955792286
aF0.2676851815357657
aF0.5992184008971424
aF0.9948830340744095
aF0.47958058322812125
aF0.8879630404544375
aF0.8114743342431983
aF0.6548694270243494
atp1426
tp1427
a(g137
(S'\x00\t\x0c\x00\x00\x00'
p1428
tp1429
Rp1430
g151
(lp1431
F0.3695185699257174
aF0.10459618348705546
aF0.5895025131376731
aF0.05684851101625077
aF0.30448023321580464
aF0.6940821256309619
aF0.1260777752673724
aF0.11718202776356323
aF0.3728535021777526
aF0.9652273481018135
aF0.26716415614304034
aF0.44372379413262864
aF0.2851535111006499
aF0.8691828689102666
aF0.5779820325319586
aF0.29745062457860527
aF0.8303298079139353
aF0.9156601951149406
aF0.0766957411891609
aF0.358624603207232
aF0.8691180376079675
aF0.5752510067131986
aF0.7862363646625214
atp1432
a(g137
(S'\x00\t\x10\x00\x00\x00'
p1433
tp1434
Rp1435
g141
((lp1436
g143
ag144
a(lp1437
F0.9758704779335093
aF0.9343936846232317
aF0.8331878151263946
aF0.3579833695770376
aF0.4814155433334155
aF0.3351005228144899
aF0.7372787694295752
aF0.9732372847970927
aF0.6524081670350781
aF0.8845833480970042
aF0.2053824746128844
aF0.3377706793044193
aF0.2189455037091378
aF0.7716670290139728
aF0.9854660905981694
aF0.14561947795447738
aF0.1574131245272552
aF0.9433738127907155
aF0.891317280947258
aF0.7229518119736419
aF0.1343375139155244
aF0.34935228547868835
aF0.5088739619281253
atp1438
tp1439
a(g137
(S'\x00\t\x11\x00\x00\x00'
p1440
tp1441
Rp1442
g151
(lp1443
F0.03751707664925008
aF0.9330622061377242
aF0.4381142603518401
aF0.28126620061008933
aF0.9672399860307251
aF0.8881944970977164
aF0.40819763685167343
aF0.7134526448671863
aF0.5810548386553119
aF0.10006583607596042
aF0.6082830085283378
aF0.0714870196795454
aF0.1713425691929581
aF0.41657788517220273
aF0.9808154467885742
aF0.36568113724390927
aF0.8645062146485949
aF0.7877326030971116
aF0.6565605073748016
aF0.03050386370958602
aF0.5335418823005996
aF0.42064134529579644
aF0.7052351405929833
atp1444
a(g137
(S'\x00\t\x15\x00\x00\x00'
p1445
tp1446
Rp1447
g141
((lp1448
g143
ag144
a(lp1449
F0.8288744318191485
aF0.38627839239614736
aF0.9931109541886184
aF0.671596826800896
aF0.13418035125947836
aF0.39842851674126245
aF0.40753850623926346
aF0.5888717900069753
aF0.13323406354437795
aF0.5842565156547361
aF0.3534646226566702
aF0.013409409345264578
aF0.08147756490551028
aF0.9124640814686478
aF0.8176568915297707
aF0.5730291220346889
aF0.3478328473489375
aF0.11895700677071686
aF0.35267569826663203
aF0.9382688208382717
aF0.5617169362153728
aF0.5097349622954089
aF0.5813229308200124
atp1450
tp1451
a(g137
(S'\x00\t\x16\x00\x00\x00'
p1452
tp1453
Rp1454
g151
(lp1455
F0.46559258582199436
aF0.5962087198862766
aF0.9076116833401758
aF0.7581511987669441
aF0.9803201334039707
aF0.1510524153969176
aF0.5321931154167278
aF0.5493508931361555
aF0.42345127220698464
aF0.8972376162464041
aF0.12066476373108836
aF0.3150000686662914
aF0.33996452952365697
aF0.9643520326604609
aF0.29695926838409004
aF0.28316640812976146
aF0.835629547525053
aF0.32065205922640516
aF0.14730960285058603
aF0.5514717698345241
aF0.23618679453714464
aF0.6039421408608102
aF0.03813373371723516
atp1456
asg298
(dp1457
g300
g301
sg302
g303
sg304
g305
sg306
(lp1458
(lp1459
asg309
g137
(S'\x00\x00\x00\x00\x00\x00'
p1460
tp1461
Rp1462
sg313
g314
sssI9
(dp1463
g2
(g3
(g7
S'\xf6O\xccR"A\xb1\xbf'
p1464
tp1465
Rp1466
g3
(g7
S'w\xa6A\x8dK\xbc\xba\xbf'
p1467
tp1468
Rp1469
tp1470
sg17
(lp1471
(g3
(g7
S'+\xb9*\xa2\xf4b\xb3\xbf'
p1472
tp1473
Rp1474
g3
(g7
S'&I\xe5{\x19\x18\xa5\xbf'
p1475
tp1476
Rp1477
tp1478
a(g3
(g7
S'\xdf\x0fy\x98\xe6h\xac?'
p1479
tp1480
Rp1481
g3
(g7
S'\x9br\xeedC\xf1\xab\xbf'
p1482
tp1483
Rp1484
tp1485
a(g3
(g7
S'\xe8\xa9,E\xa0\x14\xa0\xbf'
p1486
tp1487
Rp1488
g3
(g7
S'GMu\xda\x815\xac?'
p1489
tp1490
Rp1491
tp1492
a(g3
(g7
S'\x9e\xaawDP\xa3\xb6?'
p1493
tp1494
Rp1495
g3
(g7
S'\xb8X\xd9\x13\x9c\x16\x9d?'
p1496
tp1497
Rp1498
tp1499
asg110
g111
sg135
(lp1500
(g137
(S'\x00\x08\x1a\x00\x00\x00'
p1501
tp1502
Rp1503
g141
((lp1504
g143
ag144
a(lp1505
F0.0962821439606828
aF0.8492168318292526
aF0.27280603540610604
aF0.9787170910422298
aF0.6221535264504532
aF0.9676696057877355
aF0.4938204833069144
aF0.05482790594773723
aF0.8851469973636722
aF0.06494250104376265
aF0.7542424909319484
aF0.8839259363433014
aF0.9716306839489215
aF0.2744501926368076
aF0.7492865210131865
aF0.0520274804750569
aF0.6455520612351958
aF0.7276200334689941
aF0.8206033642635981
aF0.9467088596604091
aF0.23647072989505857
aF0.43909245847729206
aF0.2034457475473147
atp1506
tp1507
a(g137
(S'\x00\x08\x1b\x00\x00\x00'
p1508
tp1509
Rp1510
g151
(lp1511
F0.29028980619752476
aF0.3722805676677371
aF0.7121638131109814
aF0.8684273641052127
aF0.2182558370654808
aF0.22981193916930387
aF0.9534505359448332
aF0.6429048364756377
aF0.9204282466393379
aF0.661207460552506
aF0.3861757749224456
aF0.7943514524221613
aF0.27080757854898974
aF0.4319554973951626
aF0.3107846385828167
aF0.8624179430652011
aF0.5712153233730975
aF0.21870682526410834
aF0.7269685303664942
aF0.1668241591852503
aF0.9093552543529027
aF0.9102399737558429
aF0.18852116859909618
atp1512
a(g137
(S'\x00\x08\x1f\x00\x00\x00'
p1513
tp1514
Rp1515
g141
((lp1516
g143
ag144
a(lp1517
F0.5035084464311697
aF0.9952924272566167
aF0.04020933285581074
aF0.47990988544524893
aF0.1850930065224513
aF0.19111480814173898
aF0.18146729899527025
aF0.31153047707856873
aF0.5230882865451264
aF0.3629488026973422
aF0.7064331526168987
aF0.4340949850941206
aF0.8806379653653873
aF0.05651009581859223
aF0.42521364652550875
aF0.6526907227070073
aF0.49854135831382873
aF0.2692431085428558
aF0.9406746806029969
aF0.45867813179453354
aF0.9686984412568624
aF0.9245238380437708
aF0.836514716486728
atp1518
tp1519
a(g137
(S'\x00\x08 \x00\x00\x00'
p1520
tp1521
Rp1522
g151
(lp1523
F0.7555307670182047
aF0.2930066463257438
aF0.19771972168304053
aF0.5093331044744052
aF0.8967466794400709
aF0.04996430998235324
aF0.5900892441944796
aF0.05827782130587378
aF0.6652684385157205
aF0.8924058793528682
aF0.7022221201130197
aF0.3636446979505388
aF0.9913943890672414
aF0.40373593322644274
aF0.4228399301425758
aF0.7643767139572565
aF0.5700418220873762
aF0.9397301748360778
aF0.5340516869933578
aF0.860613173563024
aF0.08970980725440081
aF0.7617021379913305
aF0.2871804672693823
atp1524
a(g137
(S'\x00\x08$\x00\x00\x00'
p1525
tp1526
Rp1527
g141
((lp1528
g143
ag144
a(lp1529
F0.7075133301667292
aF0.46739184462742467
aF0.36418749654730187
aF0.6274789049029748
aF0.9238950823471953
aF0.11612341538279969
aF0.7779253408802808
aF0.5599483064485038
aF0.6227300232258406
aF0.251247125319884
aF0.633575243791123
aF0.35835207024332727
aF0.3977294727078573
aF0.5408965758630592
aF0.05792571915675726
aF0.28769157984384386
aF0.1731450725402348
aF0.007017730357058993
aF0.5759481954226929
aF0.8822758378816289
aF0.6033984895167829
aF0.21119354204076535
aF0.8154735777103214
atp1530
tp1531
a(g137
(S'\x00\x08%\x00\x00\x00'
p1532
tp1533
Rp1534
g151
(lp1535
F0.10116854338705628
aF0.5780736237595373
aF0.5405767040011247
aF0.12340289553387307
aF0.8046782955780603
aF0.0788735268214571
aF0.775019287626118
aF0.9174715402768704
aF0.5871443443407244
aF0.3277555988483212
aF0.5759514321546693
aF0.4205699922528543
aF0.0940451685772895
aF0.4701760522553794
aF0.8329144298517924
aF0.1419370082681456
aF0.09002007929098199
aF0.30105536897572294
aF0.1312516818371252
aF0.4975601025183993
aF0.7365332742515187
aF0.13780792842894685
aF0.6770490337698023
atp1536
a(g137
(S'\x00\x08)\x00\x00\x00'
p1537
tp1538
Rp1539
g141
((lp1540
g143
ag144
a(lp1541
F0.5611110504885203
aF0.7593086580243465
aF0.46950930731973783
aF0.9769079159362145
aF0.7981070308845627
aF0.11884390677804801
aF0.48349524595161564
aF0.375599186816708
aF0.6828948726507129
aF0.7453775967267332
aF0.024751633093822
aF0.28111034540768653
aF0.2869954176201096
aF0.5224257939662829
aF0.8681202596224852
aF0.95629936945831
aF0.4484972175948878
aF0.5859443064108403
aF0.35200290417053237
aF0.5544641955452508
aF0.3086009487425859
aF0.3849113213937645
aF0.5920883456105606
atp1542
tp1543
a(g137
(S'\x00\x08*\x00\x00\x00'
p1544
tp1545
Rp1546
g151
(lp1547
F0.0948270842361234
aF0.7756255406033941
aF0.8024428112712853
aF0.1519654629499949
aF0.6556828339528662
aF0.7378352393293975
aF0.38820773817516807
aF0.06755252932446099
aF0.7299706723677062
aF0.21653408294890286
aF0.6739830040583842
aF0.6582469209030696
aF0.8411750116491008
aF0.26206666401215806
aF0.18567004048766356
aF0.08379602939573216
aF0.8612178350826982
aF0.10069619960555454
aF0.9267474402839262
aF0.3472637952249026
aF0.634937093660417
aF0.5691245073299729
aF0.5509765353247723
atp1548
asg298
(dp1549
g300
g301
sg302
g303
sg304
g305
sg306
(lp1550
(lp1551
asg309
g137
(S'\x00\x00\x00\x00\x00\x00'
p1552
tp1553
Rp1554
sg313
g314
sssI10
(dp1555
g2
(g3
(g7
S'\xeaJ\xccR"A\xb1\xbf'
p1556
tp1557
Rp1558
g3
(g7
S'\x06\xaaA\x8dK\xbc\xba\xbf'
p1559
tp1560
Rp1561
tp1562
sg17
(lp1563
(g3
(g7
S'X\xb7\xd0\xeed\xa1\xb1\xbf'
p1564
tp1565
Rp1566
g3
(g7
S'\xa4\xb3\xde\x9dcm\xba\xbf'
p1567
tp1568
Rp1569
tp1570
a(g3
(g7
S'\xbdo\xfa\xa4\xb8\xf4\xb0\xbf'
p1571
tp1572
Rp1573
g3
(g7
S'\xfc\xebB\x83\xfc\xef\xb3\xbf'
p1574
tp1575
Rp1576
tp1577
a(g3
(g7
S'\xf7la3\x80\x91\x9e\xbf'
p1578
tp1579
Rp1580
g3
(g7
S'\xd1\xbe\x19\xfa\x08\x8c\xb0\xbf'
p1581
tp1582
Rp1583
tp1584
a(g3
(g7
S'z\xde\xe5\x057\xde\x96\xbf'
p1585
tp1586
Rp1587
g3
(g7
S'\x99C\x9d-\xc2-\xae\xbf'
p1588
tp1589
Rp1590
tp1591
a(g3
(g7
S'\xcf@\x8c\x87\x0fD\xa7\xbf'
p1592
tp1593
Rp1594
g3
(g7
S'\x84\xe3\x0c\xd8\xa2+\x9d\xbf'
p1595
tp1596
Rp1597
tp1598
a(g3
(g7
S'\x0b\xe5S\xb1"U\xa3\xbf'
p1599
tp1600
Rp1601
g3
(g7
S'\xdf\x1f\x05\x189\xe4\x96?'
p1602
tp1603
Rp1604
tp1605
a(g3
(g7
S'\xeet\x1e\r\x10\xae\x99?'
p1606
tp1607
Rp1608
g3
(g7
S'C\xbd\x8d\xafu5\xb2?'
p1609
tp1610
Rp1611
tp1612
a(g3
(g7
S'\x0f\xb8\xc7! 1\x85\xbf'
p1613
tp1614
Rp1615
g3
(g7
S'\xd4\x87\x0f\xf4\x04j\xa5?'
p1616
tp1617
Rp1618
tp1619
a(g3
(g7
S'q\xe4\xea\xda7M\xa1?'
p1620
tp1621
Rp1622
g3
(g7
S'\x85\xbdY\x0f\x8b\xc6\xaa?'
p1623
tp1624
Rp1625
tp1626
a(g3
(g7
S'3Q\xd8\xa1\xd4\xcd\xb3?'
p1627
tp1628
Rp1629
g3
(g7
S'j\x91\xcaOf0\xb2?'
p1630
tp1631
Rp1632
tp1633
asg110
g111
sg135
(lp1634
(g137
(S'\x00\x08\x1a\x00\x00\x00'
p1635
tp1636
Rp1637
g141
((lp1638
g143
ag144
a(lp1639
F0.8685053423878536
aF0.44650491562344363
aF0.9225248423002673
aF0.6706668797704841
aF0.4992436185995994
aF0.7798123261662575
aF0.8812135343143365
aF0.8405162713863046
aF0.45083560136227585
aF0.86726426724758
aF0.9047286722028327
aF0.9659321699917008
aF0.29931243083405235
aF0.7252437465700088
aF0.3311478382239875
aF0.6772289736290775
aF0.3677745688539028
aF0.5692544789748236
aF0.26633954685273764
aF0.08377680000402477
aF0.92871107067124
aF0.2135097130530509
aF0.047938393451524286
atp1640
tp1641
a(g137
(S'\x00\x08\x1b\x00\x00\x00'
p1642
tp1643
Rp1644
g151
(lp1645
F0.3642148954407728
aF0.6630611287297872
aF0.13516654099191938
aF0.8096221686653897
aF0.43694305119123766
aF0.028467429487190832
aF0.5966159318155156
aF0.08440617584477983
aF0.9359642980051085
aF0.11877575306209265
aF0.38214218951851164
aF0.2998450864780391
aF0.5314284849856216
aF0.9254783340861159
aF0.09664558894162567
aF0.6458994352729491
aF0.9593002051410378
aF0.44024297993678796
aF0.378955047406053
aF0.6365317054961614
aF0.3532752504536608
aF0.047447953850439206
aF0.3024407542094134
atp1646
a(g137
(S'\x00\x08\x1f\x00\x00\x00'
p1647
tp1648
Rp1649
g141
((lp1650
g143
ag144
a(lp1651
F0.9422880588717396
aF0.43811727961824654
aF0.7338425528586985
aF0.7449501654244388
aF0.05455798594476424
aF0.07515412924116383
aF0.3040981253245575
aF0.8781346083803933
aF0.7966739794134552
aF0.23932729105234585
aF0.06910502278322528
aF0.5435917411393988
aF0.8246145337749564
aF0.9943356909899081
aF0.26860058382607577
aF0.706615729437701
aF0.7367515561316963
aF0.7164057889487001
aF0.9458622188511367
aF0.8519013286754056
aF0.3052487785594771
aF0.9841737846243599
aF0.1237239837952454
atp1652
tp1653
a(g137
(S'\x00\x08 \x00\x00\x00'
p1654
tp1655
Rp1656
g151
(lp1657
F0.6908241235569395
aF0.9444961948306548
aF0.6384667734487919
aF0.38288196256340234
aF0.981533684619566
aF0.21077251322864288
aF0.13998839182545741
aF0.45773420066971526
aF0.12864124797704046
aF0.5069049745489407
aF0.9494556444916014
aF0.7390988826341832
aF0.8312312998914679
aF0.9879020846670818
aF0.7972334837202678
aF0.08615713401576763
aF0.7095580875116331
aF0.971981452921007
aF0.6120321351249145
aF0.6928571622131213
aF0.5374872433217162
aF0.5281712842383429
aF0.1677666397666876
atp1658
a(g137
(S'\x00\x08$\x00\x00\x00'
p1659
tp1660
Rp1661
g141
((lp1662
g143
ag144
a(lp1663
F0.9205010551716716
aF0.8692819134500329
aF0.7807809469641793
aF0.8147880148092035
aF0.856290765996075
aF0.415145610062168
aF0.02070031485991608
aF0.8157747620457279
aF0.5240910398700738
aF0.78191909058896
aF0.9002993989719238
aF0.013113588675705778
aF0.6819142780451557
aF0.2690495175390233
aF0.38812814210486235
aF0.7825574093865313
aF0.4649600837410508
aF0.1644203926702218
aF0.03921396942219413
aF0.4975875125459258
aF0.8683292698956673
aF0.5269365873302788
aF0.7827765483425742
atp1664
tp1665
a(g137
(S'\x00\x08%\x00\x00\x00'
p1666
tp1667
Rp1668
g151
(lp1669
F0.411299983683995
aF0.8089481911074847
aF0.4005644820982651
aF0.5477084600875951
aF0.3914780697676383
aF0.38623576397602577
aF0.7667496631796246
aF0.43651066582686715
aF0.4888973393031725
aF0.19212652437133992
aF0.19909085625852196
aF0.024073986858406893
aF0.8715673255940356
aF0.6415382867981625
aF0.6220664414662535
aF0.139763002812625
aF0.36318209206933083
aF0.3477799916875859
aF0.9831534692775106
aF0.3010310956996741
aF0.029944346451518333
aF0.80599758519787
aF0.5077336692754506
atp1670
a(g137
(S'\x00\x08)\x00\x00\x00'
p1671
tp1672
Rp1673
g141
((lp1674
g143
ag144
a(lp1675
F0.14577187117818802
aF0.4486585244324921
aF0.04076890074525352
aF0.9544513661840502
aF0.02272953988161963
aF0.7211598262830361
aF0.6631577719362239
aF0.16616891145595358
aF0.14294228891079308
aF0.1100083446695308
aF0.5727482320609595
aF0.3653087903765454
aF0.2723446630363757
aF0.8040562539242269
aF0.39725916063644795
aF0.26589990056718704
aF0.36011841561923985
aF0.013447781848313745
aF0.15782770705818006
aF0.7990419363012529
aF0.6361599010484309
aF0.8522467643966949
aF0.5622644270315393
atp1676
tp1677
a(g137
(S'\x00\x08*\x00\x00\x00'
p1678
tp1679
Rp1680
g151
(lp1681
F0.46674958773153263
aF0.39922062064054176
aF0.4776793795058655
aF0.23229476724435916
aF0.5889795573779653
aF0.5325114165190094
aF0.8145095407129663
aF0.7383379015345423
aF0.7423339504069814
aF0.5124307662217681
aF0.6635301111362982
aF0.5231552777036496
aF0.3714552239819463
aF0.5996659212135325
aF0.16976601466664865
aF0.49261403057762676
aF0.5537400892929901
aF0.2462718473565254
aF0.4613354104534031
aF0.5296079910775253
aF0.4016152109375223
aF0.34445122891176927
aF0.5153741910717009
atp1682
a(g137
(S'\x00\x08.\x00\x00\x00'
p1683
tp1684
Rp1685
g141
((lp1686
g143
ag144
a(lp1687
F0.5709506771525886
aF0.4663866147216208
aF0.5715337480253664
aF0.7803172059156721
aF0.8441333191477488
aF0.3728399937016169
aF0.7759623686283561
aF0.4197293140532625
aF0.683900104003474
aF0.119310587134275
aF0.8747797498615606
aF0.3404913471730596
aF0.264314724987993
aF0.5361461309666864
aF0.9667861025441237
aF0.9871518671469758
aF0.6874150896639759
aF0.21027944089613027
aF0.6555780892091556
aF0.9762048958349938
aF0.04904737123977643
aF0.4669736648008377
aF0.648604541171844
atp1688
tp1689
a(g137
(S'\x00\x08/\x00\x00\x00'
p1690
tp1691
Rp1692
g151
(lp1693
F0.736161670030666
aF0.9750430453922223
aF0.5072272170905687
aF0.09001102468397537
aF0.5613292846311334
aF0.7753325035281855
aF0.3921528086092315
aF0.4106842056945217
aF0.4306130493483743
aF0.5081429859570108
aF0.45094406244397456
aF0.27457198366179225
aF0.22930728317038562
aF0.2884996233817776
aF0.011342911897881836
aF0.7348300140643158
aF0.9105671887167197
aF0.1645906324403449
aF0.954304570951817
aF0.3957100009874296
aF0.7940363428757282
aF0.835603986365914
aF0.8713412249099248
atp1694
a(g137
(S'\x00\x083\x00\x00\x00'
p1695
tp1696
Rp1697
g141
((lp1698
g143
ag144
a(lp1699
F0.04070259835926138
aF0.7166890577649289
aF0.3988507352387901
aF0.3260424702437098
aF0.827966451133309
aF0.18642194402655288
aF0.435172719725735
aF0.7885886159555338
aF0.8050986724255023
aF0.8632728271684021
aF0.28925071587996887
aF0.17858253086088793
aF0.03352699522621616
aF0.5293413638203158
aF0.26575334347233615
aF0.06095008292761672
aF0.7366312331541551
aF0.17785861720688567
aF0.3682357698520391
aF0.5025471654960277
aF0.6502185782365234
aF0.5489790348577106
aF0.5849710692959965
atp1700
tp1701
a(g137
(S'\x00\x084\x00\x00\x00'
p1702
tp1703
Rp1704
g151
(lp1705
F0.1630243464990393
aF0.40326112188875907
aF0.2557076135904478
aF0.1251130724191778
aF0.42466012562577005
aF0.9749697136683492
aF0.6075652210538485
aF0.5516493851009505
aF0.9222888719405953
aF0.9721502728421564
aF0.6436042907632613
aF0.6907445193582412
aF0.3465732412043251
aF0.47051486496325023
aF0.5047133511655667
aF0.21064790599168115
aF0.7755401036010353
aF0.696012014471483
aF0.35409404646174836
aF0.016176840775727674
aF0.7542276100285665
aF0.15075541206707077
aF0.16861437251173517
atp1706
a(g137
(S'\x00\x088\x00\x00\x00'
p1707
tp1708
Rp1709
g141
((lp1710
g143
ag144
a(lp1711
F0.7160819691315937
aF0.30487968441378
aF0.7935625154600432
aF0.6181843033665723
aF0.3318581723253172
aF0.3477917317668481
aF0.32759300132730473
aF0.8727603114798178
aF0.48325303978873224
aF0.17267648811815295
aF0.5969168006650032
aF0.32215609603706064
aF0.15744494260870145
aF0.8201553985076051
aF0.7097165372235675
aF0.6390251626983389
aF0.012242050926028814
aF0.2173898509123373
aF0.3384453767590746
aF0.8573845764071092
aF0.5280374758105947
aF0.043175384356190505
aF0.8188539985031232
atp1712
tp1713
a(g137
(S'\x00\x089\x00\x00\x00'
p1714
tp1715
Rp1716
g151
(lp1717
F0.5516118125759408
aF0.694734237807246
aF0.32768271141774374
aF0.3435014919542415
aF0.8614577034955281
aF0.8357073743334021
aF0.31704640617053814
aF0.4444987035328478
aF0.2509005359436939
aF0.5234318757421653
aF0.21764834816606937
aF0.5428380584073188
aF0.9134489414055055
aF0.11476768824423977
aF0.6385725311916489
aF0.042580135565692845
aF0.23992945677745903
aF0.7247038167523806
aF0.1554723373071467
aF0.7062176357209807
aF0.14792421644610643
aF0.4493337627238916
aF0.3940810043410271
atp1718
a(g137
(S'\x00\t\x01\x00\x00\x00'
p1719
tp1720
Rp1721
g141
((lp1722
g143
ag144
a(lp1723
F0.03858126577496768
aF0.5711537464965297
aF0.13170924065054246
aF0.7724267535099194
aF0.89772712182909
aF0.7172023039007557
aF0.9724289122359774
aF0.3544625572320059
aF0.8614935727940983
aF0.48311307690284977
aF0.8265905780997418
aF0.3640745737406602
aF0.22782698883574082
aF0.2945220204179856
aF0.39871175586421237
aF0.6787418730809079
aF0.9524816877019301
aF0.5274711450443367
aF0.6009371878554124
aF0.7018951444432813
aF0.8283650806838266
aF0.6164929144951109
aF0.8413300038041553
atp1724
tp1725
a(g137
(S'\x00\t\x02\x00\x00\x00'
p1726
tp1727
Rp1728
g151
(lp1729
F0.41305185897939556
aF0.7968955357934462
aF0.039264775315398626
aF0.24992522215225876
aF0.7309790030937837
aF0.14996270930897282
aF0.316199598366536
aF0.9769972572217075
aF0.2558326728523699
aF0.8144463599590047
aF0.44612709268468187
aF0.13418496624744036
aF0.8607129657636576
aF0.510461948328765
aF0.07194454409786621
aF0.3845742065525589
aF0.5502090902722084
aF0.06130746339480564
aF0.6616762500812543
aF0.19491786875982864
aF0.21379327691613703
aF0.5941280026988058
aF0.5218032397239191
atp1730
a(g137
(S'\x00\t\x06\x00\x00\x00'
p1731
tp1732
Rp1733
g141
((lp1734
g143
ag144
a(lp1735
F0.5496745855617162
aF0.8387920603952259
aF0.2058509273540986
aF0.21754097610749046
aF0.3610958014723764
aF0.8466424849647962
aF0.0023896289588265507
aF0.8744533841116924
aF0.2229435483696165
aF0.8554685702717428
aF0.4880940563266746
aF0.5342845354639253
aF0.40388351490099617
aF0.35137703492064454
aF0.3340978592148548
aF0.1125821710480508
aF0.9636929176288475
aF0.48189216731664153
aF0.8641862597893932
aF0.08868732070549767
aF0.6167253127470512
aF0.46076334523546814
aF0.7314453454829176
atp1736
tp1737
a(g137
(S'\x00\t\x07\x00\x00\x00'
p1738
tp1739
Rp1740
g151
(lp1741
F0.708073023009695
aF0.17913443084444802
aF0.9776480758981301
aF0.1065551775248903
aF0.4096727214691652
aF0.336076153466519
aF0.6413027921484841
aF0.30386756198461795
aF0.1649744811310686
aF0.6795934214729644
aF0.952055745554402
aF0.07599212695057345
aF0.01186413511385942
aF0.6776767149617928
aF0.5693902256567607
aF0.23887968628712974
aF0.778262485691961
aF0.4171359773529286
aF0.9130644241863911
aF0.42423236906530815
aF0.293183464912392
aF0.4900920848854122
aF0.7839042438509887
atp1742
a(g137
(S'\x00\t\x0b\x00\x00\x00'
p1743
tp1744
Rp1745
g141
((lp1746
g143
ag144
a(lp1747
F0.964651290942123
aF0.6500476317880878
aF0.41979307249086295
aF0.8976776889413001
aF0.5824178223437643
aF0.7223658974103941
aF0.11835907752510544
aF0.7620941639139672
aF0.08476575905901229
aF0.6832946711940657
aF0.5958132387579738
aF0.4262810379100912
aF0.9699045561467206
aF0.04779265861971327
aF0.42670103189614417
aF0.874817045920847
aF0.09456423579190387
aF0.4311910338481212
aF0.37317369577176795
aF0.37313446361884806
aF0.38894394118452125
aF0.7974110993297137
aF0.02090623784240997
atp1748
tp1749
a(g137
(S'\x00\t\x0c\x00\x00\x00'
p1750
tp1751
Rp1752
g151
(lp1753
F0.6052257627766604
aF0.11522612976079172
aF0.20667053254050005
aF0.04903895385975643
aF0.45406869923823545
aF0.28072540743852403
aF0.6342055319308767
aF0.273239583712774
aF0.9508227562190127
aF0.5723699274694641
aF0.11601511551761168
aF0.5105123612082361
aF0.6946992646993604
aF0.9826568112705576
aF0.9141044098915018
aF0.6546704706640878
aF0.7752799436455828
aF0.1766962333046288
aF0.4878871780085442
aF0.4671742628471711
aF0.7505278964110644
aF0.596623366384058
aF0.4290910863402311
atp1754
asg298
(dp1755
g300
g301
sg302
g303
sg304
g305
sg306
(lp1756
(lp1757
asg309
g137
(S'\x00\x00\x00\x00\x00\x00'
p1758
tp1759
Rp1760
sg313
g314
sssI11
(dp1761
g2
(g3
(g7
S'AR\xccR"A\xb1\xbf'
p1762
tp1763
Rp1764
g3
(g7
S'\xda\xa4A\x8dK\xbc\xba\xbf'
p1765
tp1766
Rp1767
tp1768
sg17
(lp1769
(g3
(g7
S'\x1d)\xc0\xcb4\xd5\xa6\xbf'
p1770
tp1771
Rp1772
g3
(g7
S'(\xec#\xe0\xef\xad\xb0\xbf'
p1773
tp1774
Rp1775
tp1776
a(g3
(g7
S'e\x12\xe3\x1fv\xd0R?'
p1777
tp1778
Rp1779
g3
(g7
S'\xfe\x1eRt\xdcz\xca\xbf'
p1780
tp1781
Rp1782
tp1783
a(g3
(g7
S'\t\xb6\xa9\xca4\xd5\xa6\xbf'
p1784
tp1785
Rp1786
g3
(g7
S'\xf3\x19\x99\xe0\xef\xad\xb0\xbf'
p1787
tp1788
Rp1789
tp1790
a(g3
(g7
S'su\xf2\xc84\xd5\xa6\xbf'
p1791
tp1792
Rp1793
g3
(g7
S'9\xf3Q\xe1\xef\xad\xb0\xbf'
p1794
tp1795
Rp1796
tp1797
a(g3
(g7
S'\xd8\x82\xee\xca4\xd5\xa6\xbf'
p1798
tp1799
Rp1800
g3
(g7
S'\x04&|\xe0\xef\xad\xb0\xbf'
p1801
tp1802
Rp1803
tp1804
a(g3
(g7
S'\x0e\x00\xb6?wJ\x9a\xbf'
p1805
tp1806
Rp1807
g3
(g7
S'\xfb\x9ek!\xcau\x97\xbf'
p1808
tp1809
Rp1810
tp1811
a(g3
(g7
S'\xab\x7f\x9f\xdc\xc5;\x8c\xbf'
p1812
tp1813
Rp1814
g3
(g7
S'\n%\xe5B\xda\x9fi\xbf'
p1815
tp1816
Rp1817
tp1818
a(g3
(g7
S'*b\xc8\xder\xf8\x81?'
p1819
tp1820
Rp1821
g3
(g7
S'\xb46\xb4@\xaa\x93\x9d?'
p1822
tp1823
Rp1824
tp1825
a(g3
(g7
S'\xe6\x1c\xff\xeags\xa3?'
p1826
tp1827
Rp1828
g3
(g7
S'\xbc\xedIf\x9fn\xb6?'
p1829
tp1830
Rp1831
tp1832
asg110
g111
sg135
(lp1833
(g137
(S'\x00\x08\x1a\x00\x00\x00'
p1834
tp1835
Rp1836
g141
((lp1837
g143
ag144
a(lp1838
F0.10068437858678603
aF0.6943470644906699
aF0.07938999689504112
aF0.6529213333152838
aF0.2465189658722876
aF0.7407807290984249
aF0.3355106439755069
aF0.011121055470701857
aF0.7270267016508429
aF0.7772206954679659
aF0.6279817259927846
aF0.4121912371822304
aF0.5663612874883016
aF0.5436069774443463
aF0.29630534360722516
aF0.1664903710129667
aF0.8282315830277593
aF0.36902290367082813
aF0.947857529310173
aF0.9870875229790779
aF0.7667839009144118
aF0.5455971226341388
aF0.40703184583410923
atp1839
tp1840
a(g137
(S'\x00\x08\x1b\x00\x00\x00'
p1841
tp1842
Rp1843
g151
(lp1844
F0.21497712749450903
aF0.7766654465184379
aF0.18935199927470037
aF0.5249398031730033
aF0.10275660538632092
aF0.6573887867047871
aF0.4774248434783279
aF0.2660085379535523
aF0.8863538245447062
aF0.908051536045388
aF0.8569292016390009
aF0.6803840188475245
aF0.5506980839181675
aF0.6906655510965125
aF0.09031558772664772
aF0.8042567683057654
aF0.7165027282702883
aF0.1576916421170509
aF0.02982289111753955
aF0.1017162268771934
aF0.4127389722298087
aF0.7618645814166494
aF0.4290788039119512
atp1845
a(g137
(S'\x00\x08\x1f\x00\x00\x00'
p1846
tp1847
Rp1848
g141
((lp1849
g143
ag144
a(lp1850
F0.9653433045643582
aF0.015660910028873598
aF0.10954768477308585
aF0.8250920334614561
aF0.6871998877666596
aF0.25891804540684926
aF0.8052566434911458
aF0.2023279855758392
aF0.7671643688964143
aF0.6831506365553185
aF0.7241085816026455
aF0.3622214078400745
aF0.9328686658989003
aF0.7069246515411961
aF0.11167462889234803
aF0.8637998907233153
aF0.513558882013197
aF0.3673327596086414
aF0.7443420099058846
aF0.9109308380028525
aF0.6954884396019251
aF0.17397094102084487
aF0.37119864536004465
atp1851
tp1852
a(g137
(S'\x00\x08 \x00\x00\x00'
p1853
tp1854
Rp1855
g151
(lp1856
F0.6744391667680236
aF0.05010129758159887
aF0.5136970399658354
aF0.12484370389342059
aF0.8506600052454689
aF0.26839024071527273
aF0.24751022975279013
aF0.6778386487203908
aF0.8737214271783333
aF0.8983010980544173
aF0.22206700334803164
aF0.4378981434693209
aF0.7932594950335902
aF0.35344485655047053
aF0.2573936116569716
aF0.2364751918146707
aF0.29116340028990373
aF0.3216243519090747
aF0.8419355244744677
aF0.5880939854420169
aF0.7363696835737069
aF0.2702664777815611
aF0.7938613553568399
atp1857
a(g137
(S'\x00\x08$\x00\x00\x00'
p1858
tp1859
Rp1860
g141
((lp1861
g143
ag144
a(lp1862
F0.09304663848657879
aF0.32952047482635893
aF0.49727762677896037
aF0.13013289164057107
aF0.0016537087695999153
aF0.8757968102737992
aF0.3917884503069293
aF0.49364728243972134
aF0.739308140075261
aF0.30187807659376387
aF0.5372797759096185
aF0.9351999339177623
aF0.8699890873976048
aF0.7972593413722203
aF0.6230926054194019
aF0.17411574029381105
aF0.4869052566112789
aF0.0010265025751201584
aF0.6593104852386937
aF0.33599545222219174
aF0.8148735977802017
aF0.7519043042693346
aF0.12382405688329945
atp1863
tp1864
a(g137
(S'\x00\x08%\x00\x00\x00'
p1865
tp1866
Rp1867
g151
(lp1868
F0.674169825942569
aF0.11011382948696125
aF0.7449024260181062
aF0.1529517343839536
aF0.6233135898620037
aF0.46248885661159866
aF0.6803274039913861
aF0.028853975045708746
aF0.695312816513803
aF0.45793684407073365
aF0.028196808549953767
aF0.8855013670790001
aF0.3708164599715247
aF0.6522162545764393
aF0.8758193215275809
aF0.29633085968106754
aF0.43311924202136476
aF0.3226255247793455
aF0.6464387152282451
aF0.2714259363455348
aF0.9353234940794881
aF0.019147433873251463
aF0.34299083236683414
atp1869
a(g137
(S'\x00\x08)\x00\x00\x00'
p1870
tp1871
Rp1872
g141
((lp1873
g143
ag144
a(lp1874
F0.7005374282570974
aF0.11788664923657288
aF0.36917394774880075
aF0.35538883729919124
aF0.17395870134402025
aF0.43873763213315586
aF0.7593895945068517
aF0.33115893338501035
aF0.6449676477339386
aF0.6565790115616373
aF0.5822446794788053
aF0.22311336435001639
aF0.8046966306581378
aF0.384623763188354
aF0.4692481079483338
aF0.8180038540427506
aF0.9752894424830506
aF0.45904224361194834
aF0.9106593509264516
aF0.9228911044924608
aF0.6095700646365213
aF0.863000669772691
aF0.5469879756558457
atp1875
tp1876
a(g137
(S'\x00\x08*\x00\x00\x00'
p1877
tp1878
Rp1879
g151
(lp1880
F0.40462895640395824
aF0.3430069512092335
aF0.3478732623795935
aF0.9092284135313708
aF0.6371515058338092
aF0.6144818764854763
aF0.6095801017720405
aF0.15626050537771508
aF0.7947394857600296
aF0.34229716256357456
aF0.6957023946850938
aF0.09886376149309262
aF0.3053503606650324
aF0.7709856076476908
aF0.12568108611837925
aF0.4269347425530172
aF0.13921626188184655
aF0.8678309143268969
aF0.9135181343754623
aF0.9818189164444875
aF0.32578626992639426
aF0.473523105646836
aF0.3279220201407519
atp1881
a(g137
(S'\x00\x08.\x00\x00\x00'
p1882
tp1883
Rp1884
g141
((lp1885
g143
ag144
a(lp1886
F0.7132200703942378
aF0.6642249994201013
aF0.24486858491503194
aF0.4874908986695674
aF0.15571915088315758
aF0.08458167890005064
aF0.5510778736015655
aF0.40058540400269294
aF0.8550497797401265
aF0.9104121233737665
aF0.4960616121218858
aF0.7310013007499777
aF0.979999644290273
aF0.16875175305458634
aF0.8305795412753055
aF0.26548738118840876
aF0.08779687624580357
aF0.6431976155069401
aF0.138603508804086
aF0.9125143699005721
aF0.4864844744227005
aF0.35495091260565004
aF0.05597818873170257
atp1887
tp1888
a(g137
(S'\x00\x08/\x00\x00\x00'
p1889
tp1890
Rp1891
g151
(lp1892
F0.12036134479897087
aF0.39002290199886425
aF0.7006471555847035
aF0.2479384593897721
aF0.5682413722955556
aF0.0070201098697834086
aF0.8860756531174657
aF0.9428135519815602
aF0.6535781000271602
aF0.04732004637828713
aF0.2617647152324807
aF0.703228998218293
aF0.9969628232192291
aF0.09996028764669418
aF0.9467964063926652
aF0.6084570978909892
aF0.557785769505288
aF0.6570048641138359
aF0.7911395146452592
aF0.36735307120501726
aF0.4849719482417738
aF0.44405264367054686
aF0.4508026599648599
atp1893
a(g137
(S'\x00\x083\x00\x00\x00'
p1894
tp1895
Rp1896
g141
((lp1897
g143
ag144
a(lp1898
F0.4334685194902942
aF0.1082444118042808
aF0.5698602105751852
aF0.8887301409507926
aF0.984833988398722
aF0.22690842209409945
aF0.11104464090024058
aF0.24799971621900951
aF0.79505861182118
aF0.14075611708970193
aF0.06043908736185466
aF0.5448664246641866
aF0.6519973315142703
aF0.9967170122686785
aF0.42501346844499577
aF0.35394364955987123
aF0.5361321555878564
aF0.7911866063443874
aF0.11607237570786433
aF0.17426282262246062
aF0.19523664948406094
aF0.6407566515054568
aF0.3712392617699881
atp1899
tp1900
a(g137
(S'\x00\x084\x00\x00\x00'
p1901
tp1902
Rp1903
g151
(lp1904
F0.14494616683472694
aF0.773522526809921
aF0.7567586352714428
aF0.9588946973902921
aF0.34242985129812753
aF0.7270083736875408
aF0.050977392857998516
aF0.5255198960389507
aF0.6038880594787783
aF0.07677432932180961
aF0.5612433994537424
aF0.5824050574697526
aF0.9771558794315364
aF0.1907674673036962
aF0.9014994048544662
aF0.6429307651473288
aF0.6565028990091635
aF0.9323742977181361
aF0.8311000071031058
aF0.9784882625087612
aF0.22810226593800775
aF0.5441825449712004
aF0.021658317772929925
atp1905
a(g137
(S'\x00\x088\x00\x00\x00'
p1906
tp1907
Rp1908
g141
((lp1909
g143
ag144
a(lp1910
F0.6596261443940192
aF0.9941317964779315
aF0.9388749940654794
aF0.3025634942952793
aF0.4810397173670713
aF0.46722574968558095
aF0.8687425156962041
aF0.8415700652050963
aF0.5963079957634193
aF0.40809065598235594
aF0.7693126036754997
aF0.7700220507813444
aF0.5683984088389408
aF0.6890356716574498
aF0.2813683943426398
aF0.214752027729593
aF0.011117666518478675
aF0.7841762331567668
aF0.5660044104735019
aF0.5371967030644217
aF0.336873494709952
aF0.4866761026526909
aF0.5278478814128387
atp1911
tp1912
a(g137
(S'\x00\x089\x00\x00\x00'
p1913
tp1914
Rp1915
g151
(lp1916
F0.6310357121986463
aF0.35054075364213555
aF0.49091894150771476
aF0.977388730623985
aF0.999851003453628
aF0.36625808368891977
aF0.10825947226531285
aF0.27613485156691575
aF0.24941769092137445
aF0.04690623255446369
aF0.21682009779793698
aF0.03315335776607353
aF0.18339655951154432
aF0.1023829503442687
aF0.6326125272648997
aF0.30664457776632914
aF0.27274341551300196
aF0.9210415160013437
aF0.21737447834284507
aF0.6592957567555774
aF0.11272920287086796
aF0.8269993411373274
aF0.14405191473782852
atp1917
a(g137
(S'\x00\t\x01\x00\x00\x00'
p1918
tp1919
Rp1920
g141
((lp1921
g143
ag144
a(lp1922
F0.4082179693624969
aF0.49684336616635383
aF0.7923904408023876
aF0.4088381050281452
aF0.5559687393434161
aF0.9335530575156644
aF0.5995079478811418
aF0.7888819101128489
aF0.325141287568138
aF0.30677964336437225
aF0.452313465418944
aF0.1886083594035367
aF0.7325201011234352
aF0.37932357959386265
aF0.6477742966026723
aF0.18837424269490965
aF0.9782883584259667
aF0.8474294295294186
aF0.09916251640296458
aF0.39664231623930213
aF0.17993898116460705
aF0.9428077367035343
aF0.8010365832347618
atp1923
tp1924
a(g137
(S'\x00\t\x02\x00\x00\x00'
p1925
tp1926
Rp1927
g151
(lp1928
F0.4367179970199041
aF0.8211161768638625
aF0.025837902979592875
aF0.37891401496459576
aF0.1342252000645917
aF0.4259916851580704
aF0.660287117215734
aF0.9915945916569644
aF0.389166586057366
aF0.49289247993907137
aF0.6984824104734654
aF0.3089213123969643
aF0.45051353176279885
aF0.6808486327631266
aF0.5201005366134099
aF0.42142484713743755
aF0.5698973516617735
aF0.15498433142185508
aF0.30510819340205686
aF0.1526139614441261
aF0.006825892779184661
aF0.8544925561673985
aF0.0399338917345462
atp1929
a(g137
(S'\x00\t\x06\x00\x00\x00'
p1930
tp1931
Rp1932
g141
((lp1933
g143
ag144
a(lp1934
F0.548577004918529
aF0.801158941753303
aF0.4075074900682525
aF0.2051567264472598
aF0.5945543249536361
aF0.6836861424962539
aF0.6469666801121398
aF0.9425167577669586
aF0.3085163813018005
aF0.2843653632182179
aF0.4659220543673416
aF0.38981156877671364
aF0.10440340666540959
aF0.6470054862536262
aF0.8004141695557982
aF0.10455850087534091
aF0.19210259328101675
aF0.8073069267079455
aF0.7370224086416023
aF0.48666682905554526
aF0.3155011459738757
aF0.20182323435386418
aF0.07762441151556132
atp1935
tp1936
a(g137
(S'\x00\t\x07\x00\x00\x00'
p1937
tp1938
Rp1939
g151
(lp1940
F0.9628972898696537
aF0.32028264671902773
aF0.011667950952383821
aF0.7964968063471133
aF0.49236725446184615
aF0.9105021498845219
aF0.44758579382739017
aF0.5682852069633387
aF0.6096738898659162
aF0.39029575708377495
aF0.6108234007369854
aF0.7668932199454719
aF0.3014059227263437
aF0.7201680996839755
aF0.4776484696815565
aF0.8897124630824829
aF0.1584195148606239
aF0.558436337575113
aF0.11017299987991858
aF0.9989970321351272
aF0.4459539974159288
aF0.4417071912060285
aF0.4495960679804475
atp1941
asg298
(dp1942
g300
g301
sg302
g303
sg304
g305
sg306
(lp1943
(lp1944
asg309
g137
(S'\x00\x00\x00\x00\x00\x00'
p1945
tp1946
Rp1947
sg313
g314
sss.